ARM GAS  C:\Users\SHINRA~1\AppData\Local\Temp\cci73MRf.s 			page 1


   1              		.cpu cortex-m4
   2              		.eabi_attribute 27, 1
   3              		.eabi_attribute 28, 1
   4              		.eabi_attribute 20, 1
   5              		.eabi_attribute 21, 1
   6              		.eabi_attribute 23, 3
   7              		.eabi_attribute 24, 1
   8              		.eabi_attribute 25, 1
   9              		.eabi_attribute 26, 1
  10              		.eabi_attribute 30, 1
  11              		.eabi_attribute 34, 1
  12              		.eabi_attribute 18, 4
  13              		.file	"i2s.c"
  14              		.text
  15              	.Ltext0:
  16              		.cfi_sections	.debug_frame
  17              		.section	.text.MX_I2S2_Init,"ax",%progbits
  18              		.align	1
  19              		.global	MX_I2S2_Init
  20              		.arch armv7e-m
  21              		.syntax unified
  22              		.thumb
  23              		.thumb_func
  24              		.fpu fpv4-sp-d16
  26              	MX_I2S2_Init:
  27              	.LFB126:
  28              		.file 1 "Src/i2s.c"
   1:Src/i2s.c     **** /**
   2:Src/i2s.c     ****   ******************************************************************************
   3:Src/i2s.c     ****   * File Name          : I2S.c
   4:Src/i2s.c     ****   * Description        : This file provides code for the configuration
   5:Src/i2s.c     ****   *                      of the I2S instances.
   6:Src/i2s.c     ****   ******************************************************************************
   7:Src/i2s.c     ****   * @attention
   8:Src/i2s.c     ****   *
   9:Src/i2s.c     ****   * <h2><center>&copy; Copyright (c) 2022 STMicroelectronics.
  10:Src/i2s.c     ****   * All rights reserved.</center></h2>
  11:Src/i2s.c     ****   *
  12:Src/i2s.c     ****   * This software component is licensed by ST under Ultimate Liberty license
  13:Src/i2s.c     ****   * SLA0044, the "License"; You may not use this file except in compliance with
  14:Src/i2s.c     ****   * the License. You may obtain a copy of the License at:
  15:Src/i2s.c     ****   *                             www.st.com/SLA0044
  16:Src/i2s.c     ****   *
  17:Src/i2s.c     ****   ******************************************************************************
  18:Src/i2s.c     ****   */
  19:Src/i2s.c     **** 
  20:Src/i2s.c     **** /* Includes ------------------------------------------------------------------*/
  21:Src/i2s.c     **** #include "i2s.h"
  22:Src/i2s.c     **** 
  23:Src/i2s.c     **** /* USER CODE BEGIN 0 */
  24:Src/i2s.c     **** 
  25:Src/i2s.c     **** /* USER CODE END 0 */
  26:Src/i2s.c     **** 
  27:Src/i2s.c     **** I2S_HandleTypeDef hi2s2;
  28:Src/i2s.c     **** DMA_HandleTypeDef hdma_spi2_rx;
  29:Src/i2s.c     **** DMA_HandleTypeDef hdma_spi2_tx;
  30:Src/i2s.c     **** 
ARM GAS  C:\Users\SHINRA~1\AppData\Local\Temp\cci73MRf.s 			page 2


  31:Src/i2s.c     **** /* I2S2 init function */
  32:Src/i2s.c     **** void MX_I2S2_Init(void)
  33:Src/i2s.c     **** {
  29              		.loc 1 33 1 view -0
  30              		.cfi_startproc
  31              		@ args = 0, pretend = 0, frame = 0
  32              		@ frame_needed = 0, uses_anonymous_args = 0
  33 0000 08B5     		push	{r3, lr}
  34              	.LCFI0:
  35              		.cfi_def_cfa_offset 8
  36              		.cfi_offset 3, -8
  37              		.cfi_offset 14, -4
  34:Src/i2s.c     **** 
  35:Src/i2s.c     ****   hi2s2.Instance = SPI2;
  38              		.loc 1 35 3 view .LVU1
  39              		.loc 1 35 18 is_stmt 0 view .LVU2
  40 0002 0E48     		ldr	r0, .L5
  41 0004 0E4B     		ldr	r3, .L5+4
  42 0006 0360     		str	r3, [r0]
  36:Src/i2s.c     ****   hi2s2.Init.Mode = I2S_MODE_MASTER_RX;
  43              		.loc 1 36 3 is_stmt 1 view .LVU3
  44              		.loc 1 36 19 is_stmt 0 view .LVU4
  45 0008 4FF44073 		mov	r3, #768
  46 000c 4360     		str	r3, [r0, #4]
  37:Src/i2s.c     ****   hi2s2.Init.Standard = I2S_STANDARD_MSB;
  47              		.loc 1 37 3 is_stmt 1 view .LVU5
  48              		.loc 1 37 23 is_stmt 0 view .LVU6
  49 000e 1023     		movs	r3, #16
  50 0010 8360     		str	r3, [r0, #8]
  38:Src/i2s.c     ****   hi2s2.Init.DataFormat = I2S_DATAFORMAT_24B;
  51              		.loc 1 38 3 is_stmt 1 view .LVU7
  52              		.loc 1 38 25 is_stmt 0 view .LVU8
  53 0012 0323     		movs	r3, #3
  54 0014 C360     		str	r3, [r0, #12]
  39:Src/i2s.c     ****   hi2s2.Init.MCLKOutput = I2S_MCLKOUTPUT_ENABLE;
  55              		.loc 1 39 3 is_stmt 1 view .LVU9
  56              		.loc 1 39 25 is_stmt 0 view .LVU10
  57 0016 4FF40073 		mov	r3, #512
  58 001a 0361     		str	r3, [r0, #16]
  40:Src/i2s.c     ****   hi2s2.Init.AudioFreq = I2S_AUDIOFREQ_48K;
  59              		.loc 1 40 3 is_stmt 1 view .LVU11
  60              		.loc 1 40 24 is_stmt 0 view .LVU12
  61 001c 4BF68033 		movw	r3, #48000
  62 0020 4361     		str	r3, [r0, #20]
  41:Src/i2s.c     ****   hi2s2.Init.CPOL = I2S_CPOL_HIGH;
  63              		.loc 1 41 3 is_stmt 1 view .LVU13
  64              		.loc 1 41 19 is_stmt 0 view .LVU14
  65 0022 0823     		movs	r3, #8
  66 0024 8361     		str	r3, [r0, #24]
  42:Src/i2s.c     ****   hi2s2.Init.ClockSource = I2S_CLOCK_SYSCLK;
  67              		.loc 1 42 3 is_stmt 1 view .LVU15
  68              		.loc 1 42 26 is_stmt 0 view .LVU16
  69 0026 0223     		movs	r3, #2
  70 0028 C361     		str	r3, [r0, #28]
  43:Src/i2s.c     ****   hi2s2.Init.FullDuplexMode = I2S_FULLDUPLEXMODE_ENABLE;
  71              		.loc 1 43 3 is_stmt 1 view .LVU17
  72              		.loc 1 43 29 is_stmt 0 view .LVU18
ARM GAS  C:\Users\SHINRA~1\AppData\Local\Temp\cci73MRf.s 			page 3


  73 002a 0123     		movs	r3, #1
  74 002c 0362     		str	r3, [r0, #32]
  44:Src/i2s.c     ****   if (HAL_I2S_Init(&hi2s2) != HAL_OK)
  75              		.loc 1 44 3 is_stmt 1 view .LVU19
  76              		.loc 1 44 7 is_stmt 0 view .LVU20
  77 002e FFF7FEFF 		bl	HAL_I2S_Init
  78              	.LVL0:
  79              		.loc 1 44 6 view .LVU21
  80 0032 00B9     		cbnz	r0, .L4
  81              	.L1:
  45:Src/i2s.c     ****   {
  46:Src/i2s.c     ****     Error_Handler();
  47:Src/i2s.c     ****   }
  48:Src/i2s.c     **** 
  49:Src/i2s.c     **** }
  82              		.loc 1 49 1 view .LVU22
  83 0034 08BD     		pop	{r3, pc}
  84              	.L4:
  46:Src/i2s.c     ****   }
  85              		.loc 1 46 5 is_stmt 1 view .LVU23
  86 0036 FFF7FEFF 		bl	Error_Handler
  87              	.LVL1:
  88              		.loc 1 49 1 is_stmt 0 view .LVU24
  89 003a FBE7     		b	.L1
  90              	.L6:
  91              		.align	2
  92              	.L5:
  93 003c 00000000 		.word	hi2s2
  94 0040 00380040 		.word	1073756160
  95              		.cfi_endproc
  96              	.LFE126:
  98              		.section	.text.HAL_I2S_MspInit,"ax",%progbits
  99              		.align	1
 100              		.global	HAL_I2S_MspInit
 101              		.syntax unified
 102              		.thumb
 103              		.thumb_func
 104              		.fpu fpv4-sp-d16
 106              	HAL_I2S_MspInit:
 107              	.LVL2:
 108              	.LFB127:
  50:Src/i2s.c     **** 
  51:Src/i2s.c     **** void HAL_I2S_MspInit(I2S_HandleTypeDef* i2sHandle)
  52:Src/i2s.c     **** {
 109              		.loc 1 52 1 is_stmt 1 view -0
 110              		.cfi_startproc
 111              		@ args = 0, pretend = 0, frame = 32
 112              		@ frame_needed = 0, uses_anonymous_args = 0
 113              		.loc 1 52 1 is_stmt 0 view .LVU26
 114 0000 F0B5     		push	{r4, r5, r6, r7, lr}
 115              	.LCFI1:
 116              		.cfi_def_cfa_offset 20
 117              		.cfi_offset 4, -20
 118              		.cfi_offset 5, -16
 119              		.cfi_offset 6, -12
 120              		.cfi_offset 7, -8
 121              		.cfi_offset 14, -4
ARM GAS  C:\Users\SHINRA~1\AppData\Local\Temp\cci73MRf.s 			page 4


 122 0002 89B0     		sub	sp, sp, #36
 123              	.LCFI2:
 124              		.cfi_def_cfa_offset 56
  53:Src/i2s.c     **** 
  54:Src/i2s.c     ****   GPIO_InitTypeDef GPIO_InitStruct = {0};
 125              		.loc 1 54 3 is_stmt 1 view .LVU27
 126              		.loc 1 54 20 is_stmt 0 view .LVU28
 127 0004 0023     		movs	r3, #0
 128 0006 0393     		str	r3, [sp, #12]
 129 0008 0493     		str	r3, [sp, #16]
 130 000a 0593     		str	r3, [sp, #20]
 131 000c 0693     		str	r3, [sp, #24]
 132 000e 0793     		str	r3, [sp, #28]
  55:Src/i2s.c     ****   if(i2sHandle->Instance==SPI2)
 133              		.loc 1 55 3 is_stmt 1 view .LVU29
 134              		.loc 1 55 15 is_stmt 0 view .LVU30
 135 0010 0268     		ldr	r2, [r0]
 136              		.loc 1 55 5 view .LVU31
 137 0012 3D4B     		ldr	r3, .L15
 138 0014 9A42     		cmp	r2, r3
 139 0016 01D0     		beq	.L12
 140              	.LVL3:
 141              	.L7:
  56:Src/i2s.c     ****   {
  57:Src/i2s.c     ****   /* USER CODE BEGIN SPI2_MspInit 0 */
  58:Src/i2s.c     **** 
  59:Src/i2s.c     ****   /* USER CODE END SPI2_MspInit 0 */
  60:Src/i2s.c     ****     /* I2S2 clock enable */
  61:Src/i2s.c     ****     __HAL_RCC_SPI2_CLK_ENABLE();
  62:Src/i2s.c     ****   
  63:Src/i2s.c     ****     __HAL_RCC_GPIOB_CLK_ENABLE();
  64:Src/i2s.c     ****     __HAL_RCC_GPIOC_CLK_ENABLE();
  65:Src/i2s.c     ****     /**I2S2 GPIO Configuration    
  66:Src/i2s.c     ****     PB12     ------> I2S2_WS
  67:Src/i2s.c     ****     PB13     ------> I2S2_CK
  68:Src/i2s.c     ****     PB14     ------> I2S2_ext_SD
  69:Src/i2s.c     ****     PB15     ------> I2S2_SD
  70:Src/i2s.c     ****     PC6     ------> I2S2_MCK 
  71:Src/i2s.c     ****     */
  72:Src/i2s.c     ****     GPIO_InitStruct.Pin = GPIO_PIN_12|GPIO_PIN_13|GPIO_PIN_14|GPIO_PIN_15;
  73:Src/i2s.c     ****     GPIO_InitStruct.Mode = GPIO_MODE_AF_PP;
  74:Src/i2s.c     ****     GPIO_InitStruct.Pull = GPIO_NOPULL;
  75:Src/i2s.c     ****     GPIO_InitStruct.Speed = GPIO_SPEED_FREQ_HIGH;
  76:Src/i2s.c     ****     GPIO_InitStruct.Alternate = GPIO_AF5_SPI2;
  77:Src/i2s.c     ****     HAL_GPIO_Init(GPIOB, &GPIO_InitStruct);
  78:Src/i2s.c     **** 
  79:Src/i2s.c     ****     GPIO_InitStruct.Pin = GPIO_PIN_6;
  80:Src/i2s.c     ****     GPIO_InitStruct.Mode = GPIO_MODE_AF_PP;
  81:Src/i2s.c     ****     GPIO_InitStruct.Pull = GPIO_NOPULL;
  82:Src/i2s.c     ****     GPIO_InitStruct.Speed = GPIO_SPEED_FREQ_HIGH;
  83:Src/i2s.c     ****     GPIO_InitStruct.Alternate = GPIO_AF6_SPI2;
  84:Src/i2s.c     ****     HAL_GPIO_Init(GPIOC, &GPIO_InitStruct);
  85:Src/i2s.c     **** 
  86:Src/i2s.c     ****     /* I2S2 DMA Init */
  87:Src/i2s.c     ****     /* SPI2_RX Init */
  88:Src/i2s.c     ****     hdma_spi2_rx.Instance = DMA1_Channel4;
  89:Src/i2s.c     ****     hdma_spi2_rx.Init.Direction = DMA_PERIPH_TO_MEMORY;
ARM GAS  C:\Users\SHINRA~1\AppData\Local\Temp\cci73MRf.s 			page 5


  90:Src/i2s.c     ****     hdma_spi2_rx.Init.PeriphInc = DMA_PINC_DISABLE;
  91:Src/i2s.c     ****     hdma_spi2_rx.Init.MemInc = DMA_MINC_ENABLE;
  92:Src/i2s.c     ****     hdma_spi2_rx.Init.PeriphDataAlignment = DMA_PDATAALIGN_WORD;
  93:Src/i2s.c     ****     hdma_spi2_rx.Init.MemDataAlignment = DMA_MDATAALIGN_WORD;
  94:Src/i2s.c     ****     hdma_spi2_rx.Init.Mode = DMA_CIRCULAR;
  95:Src/i2s.c     ****     hdma_spi2_rx.Init.Priority = DMA_PRIORITY_LOW;
  96:Src/i2s.c     ****     if (HAL_DMA_Init(&hdma_spi2_rx) != HAL_OK)
  97:Src/i2s.c     ****     {
  98:Src/i2s.c     ****       Error_Handler();
  99:Src/i2s.c     ****     }
 100:Src/i2s.c     **** 
 101:Src/i2s.c     ****     __HAL_LINKDMA(i2sHandle,hdmarx,hdma_spi2_rx);
 102:Src/i2s.c     **** 
 103:Src/i2s.c     ****     /* SPI2_TX Init */
 104:Src/i2s.c     ****     hdma_spi2_tx.Instance = DMA1_Channel5;
 105:Src/i2s.c     ****     hdma_spi2_tx.Init.Direction = DMA_MEMORY_TO_PERIPH;
 106:Src/i2s.c     ****     hdma_spi2_tx.Init.PeriphInc = DMA_PINC_DISABLE;
 107:Src/i2s.c     ****     hdma_spi2_tx.Init.MemInc = DMA_MINC_ENABLE;
 108:Src/i2s.c     ****     hdma_spi2_tx.Init.PeriphDataAlignment = DMA_PDATAALIGN_WORD;
 109:Src/i2s.c     ****     hdma_spi2_tx.Init.MemDataAlignment = DMA_MDATAALIGN_WORD;
 110:Src/i2s.c     ****     hdma_spi2_tx.Init.Mode = DMA_CIRCULAR;
 111:Src/i2s.c     ****     hdma_spi2_tx.Init.Priority = DMA_PRIORITY_LOW;
 112:Src/i2s.c     ****     if (HAL_DMA_Init(&hdma_spi2_tx) != HAL_OK)
 113:Src/i2s.c     ****     {
 114:Src/i2s.c     ****       Error_Handler();
 115:Src/i2s.c     ****     }
 116:Src/i2s.c     **** 
 117:Src/i2s.c     ****     __HAL_LINKDMA(i2sHandle,hdmatx,hdma_spi2_tx);
 118:Src/i2s.c     **** 
 119:Src/i2s.c     ****     /* I2S2 interrupt Init */
 120:Src/i2s.c     ****     HAL_NVIC_SetPriority(SPI2_IRQn, 0, 0);
 121:Src/i2s.c     ****     HAL_NVIC_EnableIRQ(SPI2_IRQn);
 122:Src/i2s.c     ****   /* USER CODE BEGIN SPI2_MspInit 1 */
 123:Src/i2s.c     **** 
 124:Src/i2s.c     ****   /* USER CODE END SPI2_MspInit 1 */
 125:Src/i2s.c     ****   }
 126:Src/i2s.c     **** }
 142              		.loc 1 126 1 view .LVU32
 143 0018 09B0     		add	sp, sp, #36
 144              	.LCFI3:
 145              		.cfi_remember_state
 146              		.cfi_def_cfa_offset 20
 147              		@ sp needed
 148 001a F0BD     		pop	{r4, r5, r6, r7, pc}
 149              	.LVL4:
 150              	.L12:
 151              	.LCFI4:
 152              		.cfi_restore_state
 153              		.loc 1 126 1 view .LVU33
 154 001c 0446     		mov	r4, r0
  61:Src/i2s.c     ****   
 155              		.loc 1 61 5 is_stmt 1 view .LVU34
 156              	.LBB2:
  61:Src/i2s.c     ****   
 157              		.loc 1 61 5 view .LVU35
  61:Src/i2s.c     ****   
 158              		.loc 1 61 5 view .LVU36
ARM GAS  C:\Users\SHINRA~1\AppData\Local\Temp\cci73MRf.s 			page 6


 159 001e 03F5EC33 		add	r3, r3, #120832
 160 0022 DA69     		ldr	r2, [r3, #28]
 161 0024 42F48042 		orr	r2, r2, #16384
 162 0028 DA61     		str	r2, [r3, #28]
  61:Src/i2s.c     ****   
 163              		.loc 1 61 5 view .LVU37
 164 002a DA69     		ldr	r2, [r3, #28]
 165 002c 02F48042 		and	r2, r2, #16384
 166 0030 0092     		str	r2, [sp]
  61:Src/i2s.c     ****   
 167              		.loc 1 61 5 view .LVU38
 168 0032 009A     		ldr	r2, [sp]
 169              	.LBE2:
  61:Src/i2s.c     ****   
 170              		.loc 1 61 5 view .LVU39
  63:Src/i2s.c     ****     __HAL_RCC_GPIOC_CLK_ENABLE();
 171              		.loc 1 63 5 view .LVU40
 172              	.LBB3:
  63:Src/i2s.c     ****     __HAL_RCC_GPIOC_CLK_ENABLE();
 173              		.loc 1 63 5 view .LVU41
  63:Src/i2s.c     ****     __HAL_RCC_GPIOC_CLK_ENABLE();
 174              		.loc 1 63 5 view .LVU42
 175 0034 5A69     		ldr	r2, [r3, #20]
 176 0036 42F48022 		orr	r2, r2, #262144
 177 003a 5A61     		str	r2, [r3, #20]
  63:Src/i2s.c     ****     __HAL_RCC_GPIOC_CLK_ENABLE();
 178              		.loc 1 63 5 view .LVU43
 179 003c 5A69     		ldr	r2, [r3, #20]
 180 003e 02F48022 		and	r2, r2, #262144
 181 0042 0192     		str	r2, [sp, #4]
  63:Src/i2s.c     ****     __HAL_RCC_GPIOC_CLK_ENABLE();
 182              		.loc 1 63 5 view .LVU44
 183 0044 019A     		ldr	r2, [sp, #4]
 184              	.LBE3:
  63:Src/i2s.c     ****     __HAL_RCC_GPIOC_CLK_ENABLE();
 185              		.loc 1 63 5 view .LVU45
  64:Src/i2s.c     ****     /**I2S2 GPIO Configuration    
 186              		.loc 1 64 5 view .LVU46
 187              	.LBB4:
  64:Src/i2s.c     ****     /**I2S2 GPIO Configuration    
 188              		.loc 1 64 5 view .LVU47
  64:Src/i2s.c     ****     /**I2S2 GPIO Configuration    
 189              		.loc 1 64 5 view .LVU48
 190 0046 5A69     		ldr	r2, [r3, #20]
 191 0048 42F40022 		orr	r2, r2, #524288
 192 004c 5A61     		str	r2, [r3, #20]
  64:Src/i2s.c     ****     /**I2S2 GPIO Configuration    
 193              		.loc 1 64 5 view .LVU49
 194 004e 5B69     		ldr	r3, [r3, #20]
 195 0050 03F40023 		and	r3, r3, #524288
 196 0054 0293     		str	r3, [sp, #8]
  64:Src/i2s.c     ****     /**I2S2 GPIO Configuration    
 197              		.loc 1 64 5 view .LVU50
 198 0056 029B     		ldr	r3, [sp, #8]
 199              	.LBE4:
  64:Src/i2s.c     ****     /**I2S2 GPIO Configuration    
 200              		.loc 1 64 5 view .LVU51
ARM GAS  C:\Users\SHINRA~1\AppData\Local\Temp\cci73MRf.s 			page 7


  72:Src/i2s.c     ****     GPIO_InitStruct.Mode = GPIO_MODE_AF_PP;
 201              		.loc 1 72 5 view .LVU52
  72:Src/i2s.c     ****     GPIO_InitStruct.Mode = GPIO_MODE_AF_PP;
 202              		.loc 1 72 25 is_stmt 0 view .LVU53
 203 0058 4FF47043 		mov	r3, #61440
 204 005c 0393     		str	r3, [sp, #12]
  73:Src/i2s.c     ****     GPIO_InitStruct.Pull = GPIO_NOPULL;
 205              		.loc 1 73 5 is_stmt 1 view .LVU54
  73:Src/i2s.c     ****     GPIO_InitStruct.Pull = GPIO_NOPULL;
 206              		.loc 1 73 26 is_stmt 0 view .LVU55
 207 005e 0227     		movs	r7, #2
 208 0060 0497     		str	r7, [sp, #16]
  74:Src/i2s.c     ****     GPIO_InitStruct.Speed = GPIO_SPEED_FREQ_HIGH;
 209              		.loc 1 74 5 is_stmt 1 view .LVU56
  74:Src/i2s.c     ****     GPIO_InitStruct.Speed = GPIO_SPEED_FREQ_HIGH;
 210              		.loc 1 74 26 is_stmt 0 view .LVU57
 211 0062 0025     		movs	r5, #0
 212 0064 0595     		str	r5, [sp, #20]
  75:Src/i2s.c     ****     GPIO_InitStruct.Alternate = GPIO_AF5_SPI2;
 213              		.loc 1 75 5 is_stmt 1 view .LVU58
  75:Src/i2s.c     ****     GPIO_InitStruct.Alternate = GPIO_AF5_SPI2;
 214              		.loc 1 75 27 is_stmt 0 view .LVU59
 215 0066 0326     		movs	r6, #3
 216 0068 0696     		str	r6, [sp, #24]
  76:Src/i2s.c     ****     HAL_GPIO_Init(GPIOB, &GPIO_InitStruct);
 217              		.loc 1 76 5 is_stmt 1 view .LVU60
  76:Src/i2s.c     ****     HAL_GPIO_Init(GPIOB, &GPIO_InitStruct);
 218              		.loc 1 76 31 is_stmt 0 view .LVU61
 219 006a 0523     		movs	r3, #5
 220 006c 0793     		str	r3, [sp, #28]
  77:Src/i2s.c     **** 
 221              		.loc 1 77 5 is_stmt 1 view .LVU62
 222 006e 03A9     		add	r1, sp, #12
 223 0070 2648     		ldr	r0, .L15+4
 224              	.LVL5:
  77:Src/i2s.c     **** 
 225              		.loc 1 77 5 is_stmt 0 view .LVU63
 226 0072 FFF7FEFF 		bl	HAL_GPIO_Init
 227              	.LVL6:
  79:Src/i2s.c     ****     GPIO_InitStruct.Mode = GPIO_MODE_AF_PP;
 228              		.loc 1 79 5 is_stmt 1 view .LVU64
  79:Src/i2s.c     ****     GPIO_InitStruct.Mode = GPIO_MODE_AF_PP;
 229              		.loc 1 79 25 is_stmt 0 view .LVU65
 230 0076 4023     		movs	r3, #64
 231 0078 0393     		str	r3, [sp, #12]
  80:Src/i2s.c     ****     GPIO_InitStruct.Pull = GPIO_NOPULL;
 232              		.loc 1 80 5 is_stmt 1 view .LVU66
  80:Src/i2s.c     ****     GPIO_InitStruct.Pull = GPIO_NOPULL;
 233              		.loc 1 80 26 is_stmt 0 view .LVU67
 234 007a 0497     		str	r7, [sp, #16]
  81:Src/i2s.c     ****     GPIO_InitStruct.Speed = GPIO_SPEED_FREQ_HIGH;
 235              		.loc 1 81 5 is_stmt 1 view .LVU68
  81:Src/i2s.c     ****     GPIO_InitStruct.Speed = GPIO_SPEED_FREQ_HIGH;
 236              		.loc 1 81 26 is_stmt 0 view .LVU69
 237 007c 0595     		str	r5, [sp, #20]
  82:Src/i2s.c     ****     GPIO_InitStruct.Alternate = GPIO_AF6_SPI2;
 238              		.loc 1 82 5 is_stmt 1 view .LVU70
ARM GAS  C:\Users\SHINRA~1\AppData\Local\Temp\cci73MRf.s 			page 8


  82:Src/i2s.c     ****     GPIO_InitStruct.Alternate = GPIO_AF6_SPI2;
 239              		.loc 1 82 27 is_stmt 0 view .LVU71
 240 007e 0696     		str	r6, [sp, #24]
  83:Src/i2s.c     ****     HAL_GPIO_Init(GPIOC, &GPIO_InitStruct);
 241              		.loc 1 83 5 is_stmt 1 view .LVU72
  83:Src/i2s.c     ****     HAL_GPIO_Init(GPIOC, &GPIO_InitStruct);
 242              		.loc 1 83 31 is_stmt 0 view .LVU73
 243 0080 0623     		movs	r3, #6
 244 0082 0793     		str	r3, [sp, #28]
  84:Src/i2s.c     **** 
 245              		.loc 1 84 5 is_stmt 1 view .LVU74
 246 0084 03A9     		add	r1, sp, #12
 247 0086 2248     		ldr	r0, .L15+8
 248 0088 FFF7FEFF 		bl	HAL_GPIO_Init
 249              	.LVL7:
  88:Src/i2s.c     ****     hdma_spi2_rx.Init.Direction = DMA_PERIPH_TO_MEMORY;
 250              		.loc 1 88 5 view .LVU75
  88:Src/i2s.c     ****     hdma_spi2_rx.Init.Direction = DMA_PERIPH_TO_MEMORY;
 251              		.loc 1 88 27 is_stmt 0 view .LVU76
 252 008c 2148     		ldr	r0, .L15+12
 253 008e 224B     		ldr	r3, .L15+16
 254 0090 0360     		str	r3, [r0]
  89:Src/i2s.c     ****     hdma_spi2_rx.Init.PeriphInc = DMA_PINC_DISABLE;
 255              		.loc 1 89 5 is_stmt 1 view .LVU77
  89:Src/i2s.c     ****     hdma_spi2_rx.Init.PeriphInc = DMA_PINC_DISABLE;
 256              		.loc 1 89 33 is_stmt 0 view .LVU78
 257 0092 4560     		str	r5, [r0, #4]
  90:Src/i2s.c     ****     hdma_spi2_rx.Init.MemInc = DMA_MINC_ENABLE;
 258              		.loc 1 90 5 is_stmt 1 view .LVU79
  90:Src/i2s.c     ****     hdma_spi2_rx.Init.MemInc = DMA_MINC_ENABLE;
 259              		.loc 1 90 33 is_stmt 0 view .LVU80
 260 0094 8560     		str	r5, [r0, #8]
  91:Src/i2s.c     ****     hdma_spi2_rx.Init.PeriphDataAlignment = DMA_PDATAALIGN_WORD;
 261              		.loc 1 91 5 is_stmt 1 view .LVU81
  91:Src/i2s.c     ****     hdma_spi2_rx.Init.PeriphDataAlignment = DMA_PDATAALIGN_WORD;
 262              		.loc 1 91 30 is_stmt 0 view .LVU82
 263 0096 8023     		movs	r3, #128
 264 0098 C360     		str	r3, [r0, #12]
  92:Src/i2s.c     ****     hdma_spi2_rx.Init.MemDataAlignment = DMA_MDATAALIGN_WORD;
 265              		.loc 1 92 5 is_stmt 1 view .LVU83
  92:Src/i2s.c     ****     hdma_spi2_rx.Init.MemDataAlignment = DMA_MDATAALIGN_WORD;
 266              		.loc 1 92 43 is_stmt 0 view .LVU84
 267 009a 4FF40073 		mov	r3, #512
 268 009e 0361     		str	r3, [r0, #16]
  93:Src/i2s.c     ****     hdma_spi2_rx.Init.Mode = DMA_CIRCULAR;
 269              		.loc 1 93 5 is_stmt 1 view .LVU85
  93:Src/i2s.c     ****     hdma_spi2_rx.Init.Mode = DMA_CIRCULAR;
 270              		.loc 1 93 40 is_stmt 0 view .LVU86
 271 00a0 4FF40063 		mov	r3, #2048
 272 00a4 4361     		str	r3, [r0, #20]
  94:Src/i2s.c     ****     hdma_spi2_rx.Init.Priority = DMA_PRIORITY_LOW;
 273              		.loc 1 94 5 is_stmt 1 view .LVU87
  94:Src/i2s.c     ****     hdma_spi2_rx.Init.Priority = DMA_PRIORITY_LOW;
 274              		.loc 1 94 28 is_stmt 0 view .LVU88
 275 00a6 2023     		movs	r3, #32
 276 00a8 8361     		str	r3, [r0, #24]
  95:Src/i2s.c     ****     if (HAL_DMA_Init(&hdma_spi2_rx) != HAL_OK)
ARM GAS  C:\Users\SHINRA~1\AppData\Local\Temp\cci73MRf.s 			page 9


 277              		.loc 1 95 5 is_stmt 1 view .LVU89
  95:Src/i2s.c     ****     if (HAL_DMA_Init(&hdma_spi2_rx) != HAL_OK)
 278              		.loc 1 95 32 is_stmt 0 view .LVU90
 279 00aa C561     		str	r5, [r0, #28]
  96:Src/i2s.c     ****     {
 280              		.loc 1 96 5 is_stmt 1 view .LVU91
  96:Src/i2s.c     ****     {
 281              		.loc 1 96 9 is_stmt 0 view .LVU92
 282 00ac FFF7FEFF 		bl	HAL_DMA_Init
 283              	.LVL8:
  96:Src/i2s.c     ****     {
 284              		.loc 1 96 8 view .LVU93
 285 00b0 18BB     		cbnz	r0, .L13
 286              	.L9:
 101:Src/i2s.c     **** 
 287              		.loc 1 101 5 is_stmt 1 view .LVU94
 101:Src/i2s.c     **** 
 288              		.loc 1 101 5 view .LVU95
 289 00b2 184B     		ldr	r3, .L15+12
 290 00b4 A363     		str	r3, [r4, #56]
 101:Src/i2s.c     **** 
 291              		.loc 1 101 5 view .LVU96
 292 00b6 5C62     		str	r4, [r3, #36]
 101:Src/i2s.c     **** 
 293              		.loc 1 101 5 view .LVU97
 104:Src/i2s.c     ****     hdma_spi2_tx.Init.Direction = DMA_MEMORY_TO_PERIPH;
 294              		.loc 1 104 5 view .LVU98
 104:Src/i2s.c     ****     hdma_spi2_tx.Init.Direction = DMA_MEMORY_TO_PERIPH;
 295              		.loc 1 104 27 is_stmt 0 view .LVU99
 296 00b8 1848     		ldr	r0, .L15+20
 297 00ba 194B     		ldr	r3, .L15+24
 298 00bc 0360     		str	r3, [r0]
 105:Src/i2s.c     ****     hdma_spi2_tx.Init.PeriphInc = DMA_PINC_DISABLE;
 299              		.loc 1 105 5 is_stmt 1 view .LVU100
 105:Src/i2s.c     ****     hdma_spi2_tx.Init.PeriphInc = DMA_PINC_DISABLE;
 300              		.loc 1 105 33 is_stmt 0 view .LVU101
 301 00be 1023     		movs	r3, #16
 302 00c0 4360     		str	r3, [r0, #4]
 106:Src/i2s.c     ****     hdma_spi2_tx.Init.MemInc = DMA_MINC_ENABLE;
 303              		.loc 1 106 5 is_stmt 1 view .LVU102
 106:Src/i2s.c     ****     hdma_spi2_tx.Init.MemInc = DMA_MINC_ENABLE;
 304              		.loc 1 106 33 is_stmt 0 view .LVU103
 305 00c2 0023     		movs	r3, #0
 306 00c4 8360     		str	r3, [r0, #8]
 107:Src/i2s.c     ****     hdma_spi2_tx.Init.PeriphDataAlignment = DMA_PDATAALIGN_WORD;
 307              		.loc 1 107 5 is_stmt 1 view .LVU104
 107:Src/i2s.c     ****     hdma_spi2_tx.Init.PeriphDataAlignment = DMA_PDATAALIGN_WORD;
 308              		.loc 1 107 30 is_stmt 0 view .LVU105
 309 00c6 8022     		movs	r2, #128
 310 00c8 C260     		str	r2, [r0, #12]
 108:Src/i2s.c     ****     hdma_spi2_tx.Init.MemDataAlignment = DMA_MDATAALIGN_WORD;
 311              		.loc 1 108 5 is_stmt 1 view .LVU106
 108:Src/i2s.c     ****     hdma_spi2_tx.Init.MemDataAlignment = DMA_MDATAALIGN_WORD;
 312              		.loc 1 108 43 is_stmt 0 view .LVU107
 313 00ca 4FF40072 		mov	r2, #512
 314 00ce 0261     		str	r2, [r0, #16]
 109:Src/i2s.c     ****     hdma_spi2_tx.Init.Mode = DMA_CIRCULAR;
ARM GAS  C:\Users\SHINRA~1\AppData\Local\Temp\cci73MRf.s 			page 10


 315              		.loc 1 109 5 is_stmt 1 view .LVU108
 109:Src/i2s.c     ****     hdma_spi2_tx.Init.Mode = DMA_CIRCULAR;
 316              		.loc 1 109 40 is_stmt 0 view .LVU109
 317 00d0 4FF40062 		mov	r2, #2048
 318 00d4 4261     		str	r2, [r0, #20]
 110:Src/i2s.c     ****     hdma_spi2_tx.Init.Priority = DMA_PRIORITY_LOW;
 319              		.loc 1 110 5 is_stmt 1 view .LVU110
 110:Src/i2s.c     ****     hdma_spi2_tx.Init.Priority = DMA_PRIORITY_LOW;
 320              		.loc 1 110 28 is_stmt 0 view .LVU111
 321 00d6 2022     		movs	r2, #32
 322 00d8 8261     		str	r2, [r0, #24]
 111:Src/i2s.c     ****     if (HAL_DMA_Init(&hdma_spi2_tx) != HAL_OK)
 323              		.loc 1 111 5 is_stmt 1 view .LVU112
 111:Src/i2s.c     ****     if (HAL_DMA_Init(&hdma_spi2_tx) != HAL_OK)
 324              		.loc 1 111 32 is_stmt 0 view .LVU113
 325 00da C361     		str	r3, [r0, #28]
 112:Src/i2s.c     ****     {
 326              		.loc 1 112 5 is_stmt 1 view .LVU114
 112:Src/i2s.c     ****     {
 327              		.loc 1 112 9 is_stmt 0 view .LVU115
 328 00dc FFF7FEFF 		bl	HAL_DMA_Init
 329              	.LVL9:
 112:Src/i2s.c     ****     {
 330              		.loc 1 112 8 view .LVU116
 331 00e0 70B9     		cbnz	r0, .L14
 332              	.L10:
 117:Src/i2s.c     **** 
 333              		.loc 1 117 5 is_stmt 1 view .LVU117
 117:Src/i2s.c     **** 
 334              		.loc 1 117 5 view .LVU118
 335 00e2 0E4B     		ldr	r3, .L15+20
 336 00e4 6363     		str	r3, [r4, #52]
 117:Src/i2s.c     **** 
 337              		.loc 1 117 5 view .LVU119
 338 00e6 5C62     		str	r4, [r3, #36]
 117:Src/i2s.c     **** 
 339              		.loc 1 117 5 view .LVU120
 120:Src/i2s.c     ****     HAL_NVIC_EnableIRQ(SPI2_IRQn);
 340              		.loc 1 120 5 view .LVU121
 341 00e8 0022     		movs	r2, #0
 342 00ea 1146     		mov	r1, r2
 343 00ec 2420     		movs	r0, #36
 344 00ee FFF7FEFF 		bl	HAL_NVIC_SetPriority
 345              	.LVL10:
 121:Src/i2s.c     ****   /* USER CODE BEGIN SPI2_MspInit 1 */
 346              		.loc 1 121 5 view .LVU122
 347 00f2 2420     		movs	r0, #36
 348 00f4 FFF7FEFF 		bl	HAL_NVIC_EnableIRQ
 349              	.LVL11:
 350              		.loc 1 126 1 is_stmt 0 view .LVU123
 351 00f8 8EE7     		b	.L7
 352              	.L13:
  98:Src/i2s.c     ****     }
 353              		.loc 1 98 7 is_stmt 1 view .LVU124
 354 00fa FFF7FEFF 		bl	Error_Handler
 355              	.LVL12:
 356 00fe D8E7     		b	.L9
ARM GAS  C:\Users\SHINRA~1\AppData\Local\Temp\cci73MRf.s 			page 11


 357              	.L14:
 114:Src/i2s.c     ****     }
 358              		.loc 1 114 7 view .LVU125
 359 0100 FFF7FEFF 		bl	Error_Handler
 360              	.LVL13:
 361 0104 EDE7     		b	.L10
 362              	.L16:
 363 0106 00BF     		.align	2
 364              	.L15:
 365 0108 00380040 		.word	1073756160
 366 010c 00040048 		.word	1207960576
 367 0110 00080048 		.word	1207961600
 368 0114 00000000 		.word	hdma_spi2_rx
 369 0118 44000240 		.word	1073872964
 370 011c 00000000 		.word	hdma_spi2_tx
 371 0120 58000240 		.word	1073872984
 372              		.cfi_endproc
 373              	.LFE127:
 375              		.section	.text.HAL_I2S_MspDeInit,"ax",%progbits
 376              		.align	1
 377              		.global	HAL_I2S_MspDeInit
 378              		.syntax unified
 379              		.thumb
 380              		.thumb_func
 381              		.fpu fpv4-sp-d16
 383              	HAL_I2S_MspDeInit:
 384              	.LVL14:
 385              	.LFB128:
 127:Src/i2s.c     **** 
 128:Src/i2s.c     **** void HAL_I2S_MspDeInit(I2S_HandleTypeDef* i2sHandle)
 129:Src/i2s.c     **** {
 386              		.loc 1 129 1 view -0
 387              		.cfi_startproc
 388              		@ args = 0, pretend = 0, frame = 0
 389              		@ frame_needed = 0, uses_anonymous_args = 0
 130:Src/i2s.c     **** 
 131:Src/i2s.c     ****   if(i2sHandle->Instance==SPI2)
 390              		.loc 1 131 3 view .LVU127
 391              		.loc 1 131 15 is_stmt 0 view .LVU128
 392 0000 0268     		ldr	r2, [r0]
 393              		.loc 1 131 5 view .LVU129
 394 0002 0F4B     		ldr	r3, .L24
 395 0004 9A42     		cmp	r2, r3
 396 0006 00D0     		beq	.L23
 397 0008 7047     		bx	lr
 398              	.L23:
 129:Src/i2s.c     **** 
 399              		.loc 1 129 1 view .LVU130
 400 000a 10B5     		push	{r4, lr}
 401              	.LCFI5:
 402              		.cfi_def_cfa_offset 8
 403              		.cfi_offset 4, -8
 404              		.cfi_offset 14, -4
 405 000c 0446     		mov	r4, r0
 132:Src/i2s.c     ****   {
 133:Src/i2s.c     ****   /* USER CODE BEGIN SPI2_MspDeInit 0 */
 134:Src/i2s.c     **** 
ARM GAS  C:\Users\SHINRA~1\AppData\Local\Temp\cci73MRf.s 			page 12


 135:Src/i2s.c     ****   /* USER CODE END SPI2_MspDeInit 0 */
 136:Src/i2s.c     ****     /* Peripheral clock disable */
 137:Src/i2s.c     ****     __HAL_RCC_SPI2_CLK_DISABLE();
 406              		.loc 1 137 5 is_stmt 1 view .LVU131
 407 000e 0D4A     		ldr	r2, .L24+4
 408 0010 D369     		ldr	r3, [r2, #28]
 409 0012 23F48043 		bic	r3, r3, #16384
 410 0016 D361     		str	r3, [r2, #28]
 138:Src/i2s.c     ****   
 139:Src/i2s.c     ****     /**I2S2 GPIO Configuration    
 140:Src/i2s.c     ****     PB12     ------> I2S2_WS
 141:Src/i2s.c     ****     PB13     ------> I2S2_CK
 142:Src/i2s.c     ****     PB14     ------> I2S2_ext_SD
 143:Src/i2s.c     ****     PB15     ------> I2S2_SD
 144:Src/i2s.c     ****     PC6     ------> I2S2_MCK 
 145:Src/i2s.c     ****     */
 146:Src/i2s.c     ****     HAL_GPIO_DeInit(GPIOB, GPIO_PIN_12|GPIO_PIN_13|GPIO_PIN_14|GPIO_PIN_15);
 411              		.loc 1 146 5 view .LVU132
 412 0018 4FF47041 		mov	r1, #61440
 413 001c 0A48     		ldr	r0, .L24+8
 414              	.LVL15:
 415              		.loc 1 146 5 is_stmt 0 view .LVU133
 416 001e FFF7FEFF 		bl	HAL_GPIO_DeInit
 417              	.LVL16:
 147:Src/i2s.c     **** 
 148:Src/i2s.c     ****     HAL_GPIO_DeInit(GPIOC, GPIO_PIN_6);
 418              		.loc 1 148 5 is_stmt 1 view .LVU134
 419 0022 4021     		movs	r1, #64
 420 0024 0948     		ldr	r0, .L24+12
 421 0026 FFF7FEFF 		bl	HAL_GPIO_DeInit
 422              	.LVL17:
 149:Src/i2s.c     **** 
 150:Src/i2s.c     ****     /* I2S2 DMA DeInit */
 151:Src/i2s.c     ****     HAL_DMA_DeInit(i2sHandle->hdmarx);
 423              		.loc 1 151 5 view .LVU135
 424 002a A06B     		ldr	r0, [r4, #56]
 425 002c FFF7FEFF 		bl	HAL_DMA_DeInit
 426              	.LVL18:
 152:Src/i2s.c     ****     HAL_DMA_DeInit(i2sHandle->hdmatx);
 427              		.loc 1 152 5 view .LVU136
 428 0030 606B     		ldr	r0, [r4, #52]
 429 0032 FFF7FEFF 		bl	HAL_DMA_DeInit
 430              	.LVL19:
 153:Src/i2s.c     **** 
 154:Src/i2s.c     ****     /* I2S2 interrupt Deinit */
 155:Src/i2s.c     ****     HAL_NVIC_DisableIRQ(SPI2_IRQn);
 431              		.loc 1 155 5 view .LVU137
 432 0036 2420     		movs	r0, #36
 433 0038 FFF7FEFF 		bl	HAL_NVIC_DisableIRQ
 434              	.LVL20:
 156:Src/i2s.c     ****   /* USER CODE BEGIN SPI2_MspDeInit 1 */
 157:Src/i2s.c     **** 
 158:Src/i2s.c     ****   /* USER CODE END SPI2_MspDeInit 1 */
 159:Src/i2s.c     ****   }
 160:Src/i2s.c     **** } 
 435              		.loc 1 160 1 is_stmt 0 view .LVU138
 436 003c 10BD     		pop	{r4, pc}
ARM GAS  C:\Users\SHINRA~1\AppData\Local\Temp\cci73MRf.s 			page 13


 437              	.LVL21:
 438              	.L25:
 439              		.loc 1 160 1 view .LVU139
 440 003e 00BF     		.align	2
 441              	.L24:
 442 0040 00380040 		.word	1073756160
 443 0044 00100240 		.word	1073876992
 444 0048 00040048 		.word	1207960576
 445 004c 00080048 		.word	1207961600
 446              		.cfi_endproc
 447              	.LFE128:
 449              		.comm	hdma_spi2_tx,68,4
 450              		.comm	hdma_spi2_rx,68,4
 451              		.comm	hi2s2,68,4
 452              		.text
 453              	.Letext0:
 454              		.file 2 "c:\\program files (x86)\\gnu tools arm embedded\\9 2019-q4-major\\arm-none-eabi\\include\
 455              		.file 3 "c:\\program files (x86)\\gnu tools arm embedded\\9 2019-q4-major\\arm-none-eabi\\include\
 456              		.file 4 "Drivers/CMSIS/Include/core_cm4.h"
 457              		.file 5 "Drivers/CMSIS/Device/ST/STM32F3xx/Include/system_stm32f3xx.h"
 458              		.file 6 "Drivers/CMSIS/Device/ST/STM32F3xx/Include/stm32f303xc.h"
 459              		.file 7 "c:\\program files (x86)\\gnu tools arm embedded\\9 2019-q4-major\\arm-none-eabi\\include\
 460              		.file 8 "c:\\program files (x86)\\gnu tools arm embedded\\9 2019-q4-major\\arm-none-eabi\\include\
 461              		.file 9 "c:\\program files (x86)\\gnu tools arm embedded\\9 2019-q4-major\\lib\\gcc\\arm-none-eabi
 462              		.file 10 "c:\\program files (x86)\\gnu tools arm embedded\\9 2019-q4-major\\arm-none-eabi\\include
 463              		.file 11 "Drivers/STM32F3xx_HAL_Driver/Inc/stm32f3xx_hal_def.h"
 464              		.file 12 "Drivers/STM32F3xx_HAL_Driver/Inc/stm32f3xx_hal_gpio.h"
 465              		.file 13 "Drivers/STM32F3xx_HAL_Driver/Inc/stm32f3xx_hal_dma.h"
 466              		.file 14 "Drivers/STM32F3xx_HAL_Driver/Inc/stm32f3xx_hal_i2s.h"
 467              		.file 15 "Drivers/STM32F3xx_HAL_Driver/Inc/stm32f3xx_hal.h"
 468              		.file 16 "Inc/i2s.h"
 469              		.file 17 "Drivers/STM32F3xx_HAL_Driver/Inc/stm32f3xx_hal_cortex.h"
 470              		.file 18 "Inc/main.h"
ARM GAS  C:\Users\SHINRA~1\AppData\Local\Temp\cci73MRf.s 			page 14


DEFINED SYMBOLS
                            *ABS*:00000000 i2s.c
C:\Users\SHINRA~1\AppData\Local\Temp\cci73MRf.s:18     .text.MX_I2S2_Init:00000000 $t
C:\Users\SHINRA~1\AppData\Local\Temp\cci73MRf.s:26     .text.MX_I2S2_Init:00000000 MX_I2S2_Init
C:\Users\SHINRA~1\AppData\Local\Temp\cci73MRf.s:93     .text.MX_I2S2_Init:0000003c $d
                            *COM*:00000044 hi2s2
C:\Users\SHINRA~1\AppData\Local\Temp\cci73MRf.s:99     .text.HAL_I2S_MspInit:00000000 $t
C:\Users\SHINRA~1\AppData\Local\Temp\cci73MRf.s:106    .text.HAL_I2S_MspInit:00000000 HAL_I2S_MspInit
C:\Users\SHINRA~1\AppData\Local\Temp\cci73MRf.s:365    .text.HAL_I2S_MspInit:00000108 $d
                            *COM*:00000044 hdma_spi2_rx
                            *COM*:00000044 hdma_spi2_tx
C:\Users\SHINRA~1\AppData\Local\Temp\cci73MRf.s:376    .text.HAL_I2S_MspDeInit:00000000 $t
C:\Users\SHINRA~1\AppData\Local\Temp\cci73MRf.s:383    .text.HAL_I2S_MspDeInit:00000000 HAL_I2S_MspDeInit
C:\Users\SHINRA~1\AppData\Local\Temp\cci73MRf.s:442    .text.HAL_I2S_MspDeInit:00000040 $d

UNDEFINED SYMBOLS
HAL_I2S_Init
Error_Handler
HAL_GPIO_Init
HAL_DMA_Init
HAL_NVIC_SetPriority
HAL_NVIC_EnableIRQ
HAL_GPIO_DeInit
HAL_DMA_DeInit
HAL_NVIC_DisableIRQ
