ARM GAS  C:\Users\SHINRA~1\AppData\Local\Temp\cc4hGyU0.s 			page 1


   1              		.cpu cortex-m4
   2              		.eabi_attribute 27, 1
   3              		.eabi_attribute 28, 1
   4              		.eabi_attribute 20, 1
   5              		.eabi_attribute 21, 1
   6              		.eabi_attribute 23, 3
   7              		.eabi_attribute 24, 1
   8              		.eabi_attribute 25, 1
   9              		.eabi_attribute 26, 1
  10              		.eabi_attribute 30, 1
  11              		.eabi_attribute 34, 1
  12              		.eabi_attribute 18, 4
  13              		.file	"i2s.c"
  14              		.text
  15              	.Ltext0:
  16              		.cfi_sections	.debug_frame
  17              		.section	.text.MX_I2S2_Init,"ax",%progbits
  18              		.align	1
  19              		.global	MX_I2S2_Init
  20              		.arch armv7e-m
  21              		.syntax unified
  22              		.thumb
  23              		.thumb_func
  24              		.fpu fpv4-sp-d16
  26              	MX_I2S2_Init:
  27              	.LFB126:
  28              		.file 1 "Src/i2s.c"
   1:Src/i2s.c     **** /**
   2:Src/i2s.c     ****  ******************************************************************************
   3:Src/i2s.c     ****  * File Name          : I2S.c
   4:Src/i2s.c     ****  * Description        : This file provides code for the configuration
   5:Src/i2s.c     ****  *                      of the I2S instances.
   6:Src/i2s.c     ****  ******************************************************************************
   7:Src/i2s.c     ****  * @attention
   8:Src/i2s.c     ****  *
   9:Src/i2s.c     ****  * <h2><center>&copy; Copyright (c) 2022 STMicroelectronics.
  10:Src/i2s.c     ****  * All rights reserved.</center></h2>
  11:Src/i2s.c     ****  *
  12:Src/i2s.c     ****  * This software component is licensed by ST under Ultimate Liberty license
  13:Src/i2s.c     ****  * SLA0044, the "License"; You may not use this file except in compliance with
  14:Src/i2s.c     ****  * the License. You may obtain a copy of the License at:
  15:Src/i2s.c     ****  *                             www.st.com/SLA0044
  16:Src/i2s.c     ****  *
  17:Src/i2s.c     ****  ******************************************************************************
  18:Src/i2s.c     ****  */
  19:Src/i2s.c     **** 
  20:Src/i2s.c     **** /* Includes ------------------------------------------------------------------*/
  21:Src/i2s.c     **** #include "i2s.h"
  22:Src/i2s.c     **** 
  23:Src/i2s.c     **** /* USER CODE BEGIN 0 */
  24:Src/i2s.c     **** 
  25:Src/i2s.c     **** /* USER CODE END 0 */
  26:Src/i2s.c     **** 
  27:Src/i2s.c     **** I2S_HandleTypeDef hi2s2;
  28:Src/i2s.c     **** DMA_HandleTypeDef hdma_spi2_rx;
  29:Src/i2s.c     **** DMA_HandleTypeDef hdma_spi2_tx;
  30:Src/i2s.c     **** 
ARM GAS  C:\Users\SHINRA~1\AppData\Local\Temp\cc4hGyU0.s 			page 2


  31:Src/i2s.c     **** /* I2S2 init function */
  32:Src/i2s.c     **** void MX_I2S2_Init(void)
  33:Src/i2s.c     **** {
  29              		.loc 1 33 1 view -0
  30              		.cfi_startproc
  31              		@ args = 0, pretend = 0, frame = 0
  32              		@ frame_needed = 0, uses_anonymous_args = 0
  33 0000 08B5     		push	{r3, lr}
  34              	.LCFI0:
  35              		.cfi_def_cfa_offset 8
  36              		.cfi_offset 3, -8
  37              		.cfi_offset 14, -4
  34:Src/i2s.c     ****   hi2s2.Instance = SPI2;
  38              		.loc 1 34 3 view .LVU1
  39              		.loc 1 34 18 is_stmt 0 view .LVU2
  40 0002 0E48     		ldr	r0, .L5
  41 0004 0E4B     		ldr	r3, .L5+4
  42 0006 0360     		str	r3, [r0]
  35:Src/i2s.c     ****   hi2s2.Init.Mode = I2S_MODE_MASTER_RX;
  43              		.loc 1 35 3 is_stmt 1 view .LVU3
  44              		.loc 1 35 19 is_stmt 0 view .LVU4
  45 0008 4FF44073 		mov	r3, #768
  46 000c 4360     		str	r3, [r0, #4]
  36:Src/i2s.c     ****   hi2s2.Init.Standard = I2S_STANDARD_MSB;
  47              		.loc 1 36 3 is_stmt 1 view .LVU5
  48              		.loc 1 36 23 is_stmt 0 view .LVU6
  49 000e 1023     		movs	r3, #16
  50 0010 8360     		str	r3, [r0, #8]
  37:Src/i2s.c     ****   hi2s2.Init.DataFormat = I2S_DATAFORMAT_24B;
  51              		.loc 1 37 3 is_stmt 1 view .LVU7
  52              		.loc 1 37 25 is_stmt 0 view .LVU8
  53 0012 0323     		movs	r3, #3
  54 0014 C360     		str	r3, [r0, #12]
  38:Src/i2s.c     ****   hi2s2.Init.MCLKOutput = I2S_MCLKOUTPUT_ENABLE;
  55              		.loc 1 38 3 is_stmt 1 view .LVU9
  56              		.loc 1 38 25 is_stmt 0 view .LVU10
  57 0016 4FF40073 		mov	r3, #512
  58 001a 0361     		str	r3, [r0, #16]
  39:Src/i2s.c     ****   hi2s2.Init.AudioFreq = I2S_AUDIOFREQ_48K;
  59              		.loc 1 39 3 is_stmt 1 view .LVU11
  60              		.loc 1 39 24 is_stmt 0 view .LVU12
  61 001c 4BF68033 		movw	r3, #48000
  62 0020 4361     		str	r3, [r0, #20]
  40:Src/i2s.c     ****   hi2s2.Init.CPOL = I2S_CPOL_LOW;
  63              		.loc 1 40 3 is_stmt 1 view .LVU13
  64              		.loc 1 40 19 is_stmt 0 view .LVU14
  65 0022 0023     		movs	r3, #0
  66 0024 8361     		str	r3, [r0, #24]
  41:Src/i2s.c     ****   hi2s2.Init.ClockSource = I2S_CLOCK_SYSCLK;
  67              		.loc 1 41 3 is_stmt 1 view .LVU15
  68              		.loc 1 41 26 is_stmt 0 view .LVU16
  69 0026 0223     		movs	r3, #2
  70 0028 C361     		str	r3, [r0, #28]
  42:Src/i2s.c     ****   hi2s2.Init.FullDuplexMode = I2S_FULLDUPLEXMODE_ENABLE;
  71              		.loc 1 42 3 is_stmt 1 view .LVU17
  72              		.loc 1 42 29 is_stmt 0 view .LVU18
  73 002a 0123     		movs	r3, #1
ARM GAS  C:\Users\SHINRA~1\AppData\Local\Temp\cc4hGyU0.s 			page 3


  74 002c 0362     		str	r3, [r0, #32]
  43:Src/i2s.c     ****   if (HAL_I2S_Init(&hi2s2) != HAL_OK)
  75              		.loc 1 43 3 is_stmt 1 view .LVU19
  76              		.loc 1 43 7 is_stmt 0 view .LVU20
  77 002e FFF7FEFF 		bl	HAL_I2S_Init
  78              	.LVL0:
  79              		.loc 1 43 6 view .LVU21
  80 0032 00B9     		cbnz	r0, .L4
  81              	.L1:
  44:Src/i2s.c     ****   {
  45:Src/i2s.c     ****     Error_Handler();
  46:Src/i2s.c     ****   }
  47:Src/i2s.c     **** }
  82              		.loc 1 47 1 view .LVU22
  83 0034 08BD     		pop	{r3, pc}
  84              	.L4:
  45:Src/i2s.c     ****   }
  85              		.loc 1 45 5 is_stmt 1 view .LVU23
  86 0036 FFF7FEFF 		bl	Error_Handler
  87              	.LVL1:
  88              		.loc 1 47 1 is_stmt 0 view .LVU24
  89 003a FBE7     		b	.L1
  90              	.L6:
  91              		.align	2
  92              	.L5:
  93 003c 00000000 		.word	hi2s2
  94 0040 00380040 		.word	1073756160
  95              		.cfi_endproc
  96              	.LFE126:
  98              		.section	.text.HAL_I2S_MspInit,"ax",%progbits
  99              		.align	1
 100              		.global	HAL_I2S_MspInit
 101              		.syntax unified
 102              		.thumb
 103              		.thumb_func
 104              		.fpu fpv4-sp-d16
 106              	HAL_I2S_MspInit:
 107              	.LVL2:
 108              	.LFB127:
  48:Src/i2s.c     **** 
  49:Src/i2s.c     **** void HAL_I2S_MspInit(I2S_HandleTypeDef *i2sHandle)
  50:Src/i2s.c     **** {
 109              		.loc 1 50 1 is_stmt 1 view -0
 110              		.cfi_startproc
 111              		@ args = 0, pretend = 0, frame = 32
 112              		@ frame_needed = 0, uses_anonymous_args = 0
 113              		.loc 1 50 1 is_stmt 0 view .LVU26
 114 0000 70B5     		push	{r4, r5, r6, lr}
 115              	.LCFI1:
 116              		.cfi_def_cfa_offset 16
 117              		.cfi_offset 4, -16
 118              		.cfi_offset 5, -12
 119              		.cfi_offset 6, -8
 120              		.cfi_offset 14, -4
 121 0002 88B0     		sub	sp, sp, #32
 122              	.LCFI2:
 123              		.cfi_def_cfa_offset 48
ARM GAS  C:\Users\SHINRA~1\AppData\Local\Temp\cc4hGyU0.s 			page 4


  51:Src/i2s.c     **** 
  52:Src/i2s.c     ****   GPIO_InitTypeDef GPIO_InitStruct = {0};
 124              		.loc 1 52 3 is_stmt 1 view .LVU27
 125              		.loc 1 52 20 is_stmt 0 view .LVU28
 126 0004 0023     		movs	r3, #0
 127 0006 0393     		str	r3, [sp, #12]
 128 0008 0493     		str	r3, [sp, #16]
 129 000a 0593     		str	r3, [sp, #20]
 130 000c 0693     		str	r3, [sp, #24]
 131 000e 0793     		str	r3, [sp, #28]
  53:Src/i2s.c     ****   if (i2sHandle->Instance == SPI2)
 132              		.loc 1 53 3 is_stmt 1 view .LVU29
 133              		.loc 1 53 16 is_stmt 0 view .LVU30
 134 0010 0268     		ldr	r2, [r0]
 135              		.loc 1 53 6 view .LVU31
 136 0012 3E4B     		ldr	r3, .L15
 137 0014 9A42     		cmp	r2, r3
 138 0016 01D0     		beq	.L12
 139              	.LVL3:
 140              	.L7:
  54:Src/i2s.c     ****   {
  55:Src/i2s.c     ****     /* USER CODE BEGIN SPI2_MspInit 0 */
  56:Src/i2s.c     **** 
  57:Src/i2s.c     ****     /* USER CODE END SPI2_MspInit 0 */
  58:Src/i2s.c     ****     /* I2S2 clock enable */
  59:Src/i2s.c     ****     __HAL_RCC_SPI2_CLK_ENABLE();
  60:Src/i2s.c     **** 
  61:Src/i2s.c     ****     __HAL_RCC_GPIOB_CLK_ENABLE();
  62:Src/i2s.c     ****     __HAL_RCC_GPIOC_CLK_ENABLE();
  63:Src/i2s.c     ****     /**I2S2 GPIO Configuration
  64:Src/i2s.c     ****     PB12     ------> I2S2_WS
  65:Src/i2s.c     ****     PB13     ------> I2S2_CK
  66:Src/i2s.c     ****     PB14     ------> I2S2_ext_SD
  67:Src/i2s.c     ****     PB15     ------> I2S2_SD
  68:Src/i2s.c     ****     PC6     ------> I2S2_MCK
  69:Src/i2s.c     ****     */
  70:Src/i2s.c     ****     GPIO_InitStruct.Pin = GPIO_PIN_12 | GPIO_PIN_13 | GPIO_PIN_14 | GPIO_PIN_15;
  71:Src/i2s.c     ****     GPIO_InitStruct.Mode = GPIO_MODE_AF_PP;
  72:Src/i2s.c     ****     GPIO_InitStruct.Pull = GPIO_NOPULL;
  73:Src/i2s.c     ****     GPIO_InitStruct.Speed = GPIO_SPEED_FREQ_LOW;
  74:Src/i2s.c     ****     GPIO_InitStruct.Alternate = GPIO_AF5_SPI2;
  75:Src/i2s.c     ****     HAL_GPIO_Init(GPIOB, &GPIO_InitStruct);
  76:Src/i2s.c     **** 
  77:Src/i2s.c     ****     GPIO_InitStruct.Pin = GPIO_PIN_6;
  78:Src/i2s.c     ****     GPIO_InitStruct.Mode = GPIO_MODE_AF_PP;
  79:Src/i2s.c     ****     GPIO_InitStruct.Pull = GPIO_NOPULL;
  80:Src/i2s.c     ****     GPIO_InitStruct.Speed = GPIO_SPEED_FREQ_LOW;
  81:Src/i2s.c     ****     GPIO_InitStruct.Alternate = GPIO_AF6_SPI2;
  82:Src/i2s.c     ****     HAL_GPIO_Init(GPIOC, &GPIO_InitStruct);
  83:Src/i2s.c     **** 
  84:Src/i2s.c     ****     /* I2S2 DMA Init */
  85:Src/i2s.c     ****     /* SPI2_RX Init */
  86:Src/i2s.c     ****     hdma_spi2_rx.Instance = DMA1_Channel4;
  87:Src/i2s.c     ****     hdma_spi2_rx.Init.Direction = DMA_PERIPH_TO_MEMORY;
  88:Src/i2s.c     ****     hdma_spi2_rx.Init.PeriphInc = DMA_PINC_DISABLE;
  89:Src/i2s.c     ****     hdma_spi2_rx.Init.MemInc = DMA_MINC_ENABLE;
  90:Src/i2s.c     ****     hdma_spi2_rx.Init.PeriphDataAlignment = DMA_PDATAALIGN_HALFWORD;
ARM GAS  C:\Users\SHINRA~1\AppData\Local\Temp\cc4hGyU0.s 			page 5


  91:Src/i2s.c     ****     hdma_spi2_rx.Init.MemDataAlignment = DMA_MDATAALIGN_HALFWORD;
  92:Src/i2s.c     ****     hdma_spi2_rx.Init.Mode = DMA_CIRCULAR;
  93:Src/i2s.c     ****     hdma_spi2_rx.Init.Priority = DMA_PRIORITY_HIGH;
  94:Src/i2s.c     ****     if (HAL_DMA_Init(&hdma_spi2_rx) != HAL_OK)
  95:Src/i2s.c     ****     {
  96:Src/i2s.c     ****       Error_Handler();
  97:Src/i2s.c     ****     }
  98:Src/i2s.c     **** 
  99:Src/i2s.c     ****     __HAL_LINKDMA(i2sHandle, hdmarx, hdma_spi2_rx);
 100:Src/i2s.c     **** 
 101:Src/i2s.c     ****     /* SPI2_TX Init */
 102:Src/i2s.c     ****     hdma_spi2_tx.Instance = DMA1_Channel5;
 103:Src/i2s.c     ****     hdma_spi2_tx.Init.Direction = DMA_MEMORY_TO_PERIPH;
 104:Src/i2s.c     ****     hdma_spi2_tx.Init.PeriphInc = DMA_PINC_DISABLE;
 105:Src/i2s.c     ****     hdma_spi2_tx.Init.MemInc = DMA_MINC_ENABLE;
 106:Src/i2s.c     ****     hdma_spi2_tx.Init.PeriphDataAlignment = DMA_PDATAALIGN_HALFWORD;
 107:Src/i2s.c     ****     hdma_spi2_tx.Init.MemDataAlignment = DMA_MDATAALIGN_HALFWORD;
 108:Src/i2s.c     ****     hdma_spi2_tx.Init.Mode = DMA_CIRCULAR;
 109:Src/i2s.c     ****     hdma_spi2_tx.Init.Priority = DMA_PRIORITY_HIGH;
 110:Src/i2s.c     ****     if (HAL_DMA_Init(&hdma_spi2_tx) != HAL_OK)
 111:Src/i2s.c     ****     {
 112:Src/i2s.c     ****       Error_Handler();
 113:Src/i2s.c     ****     }
 114:Src/i2s.c     **** 
 115:Src/i2s.c     ****     __HAL_LINKDMA(i2sHandle, hdmatx, hdma_spi2_tx);
 116:Src/i2s.c     **** 
 117:Src/i2s.c     ****     /* I2S2 interrupt Init */
 118:Src/i2s.c     ****     HAL_NVIC_SetPriority(SPI2_IRQn, 0, 0);
 119:Src/i2s.c     ****     HAL_NVIC_EnableIRQ(SPI2_IRQn);
 120:Src/i2s.c     ****     /* USER CODE BEGIN SPI2_MspInit 1 */
 121:Src/i2s.c     **** 
 122:Src/i2s.c     ****     /* USER CODE END SPI2_MspInit 1 */
 123:Src/i2s.c     ****   }
 124:Src/i2s.c     **** }
 141              		.loc 1 124 1 view .LVU32
 142 0018 08B0     		add	sp, sp, #32
 143              	.LCFI3:
 144              		.cfi_remember_state
 145              		.cfi_def_cfa_offset 16
 146              		@ sp needed
 147 001a 70BD     		pop	{r4, r5, r6, pc}
 148              	.LVL4:
 149              	.L12:
 150              	.LCFI4:
 151              		.cfi_restore_state
 152              		.loc 1 124 1 view .LVU33
 153 001c 0446     		mov	r4, r0
  59:Src/i2s.c     **** 
 154              		.loc 1 59 5 is_stmt 1 view .LVU34
 155              	.LBB2:
  59:Src/i2s.c     **** 
 156              		.loc 1 59 5 view .LVU35
  59:Src/i2s.c     **** 
 157              		.loc 1 59 5 view .LVU36
 158 001e 03F5EC33 		add	r3, r3, #120832
 159 0022 DA69     		ldr	r2, [r3, #28]
 160 0024 42F48042 		orr	r2, r2, #16384
ARM GAS  C:\Users\SHINRA~1\AppData\Local\Temp\cc4hGyU0.s 			page 6


 161 0028 DA61     		str	r2, [r3, #28]
  59:Src/i2s.c     **** 
 162              		.loc 1 59 5 view .LVU37
 163 002a DA69     		ldr	r2, [r3, #28]
 164 002c 02F48042 		and	r2, r2, #16384
 165 0030 0092     		str	r2, [sp]
  59:Src/i2s.c     **** 
 166              		.loc 1 59 5 view .LVU38
 167 0032 009A     		ldr	r2, [sp]
 168              	.LBE2:
  59:Src/i2s.c     **** 
 169              		.loc 1 59 5 view .LVU39
  61:Src/i2s.c     ****     __HAL_RCC_GPIOC_CLK_ENABLE();
 170              		.loc 1 61 5 view .LVU40
 171              	.LBB3:
  61:Src/i2s.c     ****     __HAL_RCC_GPIOC_CLK_ENABLE();
 172              		.loc 1 61 5 view .LVU41
  61:Src/i2s.c     ****     __HAL_RCC_GPIOC_CLK_ENABLE();
 173              		.loc 1 61 5 view .LVU42
 174 0034 5A69     		ldr	r2, [r3, #20]
 175 0036 42F48022 		orr	r2, r2, #262144
 176 003a 5A61     		str	r2, [r3, #20]
  61:Src/i2s.c     ****     __HAL_RCC_GPIOC_CLK_ENABLE();
 177              		.loc 1 61 5 view .LVU43
 178 003c 5A69     		ldr	r2, [r3, #20]
 179 003e 02F48022 		and	r2, r2, #262144
 180 0042 0192     		str	r2, [sp, #4]
  61:Src/i2s.c     ****     __HAL_RCC_GPIOC_CLK_ENABLE();
 181              		.loc 1 61 5 view .LVU44
 182 0044 019A     		ldr	r2, [sp, #4]
 183              	.LBE3:
  61:Src/i2s.c     ****     __HAL_RCC_GPIOC_CLK_ENABLE();
 184              		.loc 1 61 5 view .LVU45
  62:Src/i2s.c     ****     /**I2S2 GPIO Configuration
 185              		.loc 1 62 5 view .LVU46
 186              	.LBB4:
  62:Src/i2s.c     ****     /**I2S2 GPIO Configuration
 187              		.loc 1 62 5 view .LVU47
  62:Src/i2s.c     ****     /**I2S2 GPIO Configuration
 188              		.loc 1 62 5 view .LVU48
 189 0046 5A69     		ldr	r2, [r3, #20]
 190 0048 42F40022 		orr	r2, r2, #524288
 191 004c 5A61     		str	r2, [r3, #20]
  62:Src/i2s.c     ****     /**I2S2 GPIO Configuration
 192              		.loc 1 62 5 view .LVU49
 193 004e 5B69     		ldr	r3, [r3, #20]
 194 0050 03F40023 		and	r3, r3, #524288
 195 0054 0293     		str	r3, [sp, #8]
  62:Src/i2s.c     ****     /**I2S2 GPIO Configuration
 196              		.loc 1 62 5 view .LVU50
 197 0056 029B     		ldr	r3, [sp, #8]
 198              	.LBE4:
  62:Src/i2s.c     ****     /**I2S2 GPIO Configuration
 199              		.loc 1 62 5 view .LVU51
  70:Src/i2s.c     ****     GPIO_InitStruct.Mode = GPIO_MODE_AF_PP;
 200              		.loc 1 70 5 view .LVU52
  70:Src/i2s.c     ****     GPIO_InitStruct.Mode = GPIO_MODE_AF_PP;
ARM GAS  C:\Users\SHINRA~1\AppData\Local\Temp\cc4hGyU0.s 			page 7


 201              		.loc 1 70 25 is_stmt 0 view .LVU53
 202 0058 4FF47043 		mov	r3, #61440
 203 005c 0393     		str	r3, [sp, #12]
  71:Src/i2s.c     ****     GPIO_InitStruct.Pull = GPIO_NOPULL;
 204              		.loc 1 71 5 is_stmt 1 view .LVU54
  71:Src/i2s.c     ****     GPIO_InitStruct.Pull = GPIO_NOPULL;
 205              		.loc 1 71 26 is_stmt 0 view .LVU55
 206 005e 0226     		movs	r6, #2
 207 0060 0496     		str	r6, [sp, #16]
  72:Src/i2s.c     ****     GPIO_InitStruct.Speed = GPIO_SPEED_FREQ_LOW;
 208              		.loc 1 72 5 is_stmt 1 view .LVU56
  72:Src/i2s.c     ****     GPIO_InitStruct.Speed = GPIO_SPEED_FREQ_LOW;
 209              		.loc 1 72 26 is_stmt 0 view .LVU57
 210 0062 0025     		movs	r5, #0
 211 0064 0595     		str	r5, [sp, #20]
  73:Src/i2s.c     ****     GPIO_InitStruct.Alternate = GPIO_AF5_SPI2;
 212              		.loc 1 73 5 is_stmt 1 view .LVU58
  73:Src/i2s.c     ****     GPIO_InitStruct.Alternate = GPIO_AF5_SPI2;
 213              		.loc 1 73 27 is_stmt 0 view .LVU59
 214 0066 0695     		str	r5, [sp, #24]
  74:Src/i2s.c     ****     HAL_GPIO_Init(GPIOB, &GPIO_InitStruct);
 215              		.loc 1 74 5 is_stmt 1 view .LVU60
  74:Src/i2s.c     ****     HAL_GPIO_Init(GPIOB, &GPIO_InitStruct);
 216              		.loc 1 74 31 is_stmt 0 view .LVU61
 217 0068 0523     		movs	r3, #5
 218 006a 0793     		str	r3, [sp, #28]
  75:Src/i2s.c     **** 
 219              		.loc 1 75 5 is_stmt 1 view .LVU62
 220 006c 03A9     		add	r1, sp, #12
 221 006e 2848     		ldr	r0, .L15+4
 222              	.LVL5:
  75:Src/i2s.c     **** 
 223              		.loc 1 75 5 is_stmt 0 view .LVU63
 224 0070 FFF7FEFF 		bl	HAL_GPIO_Init
 225              	.LVL6:
  77:Src/i2s.c     ****     GPIO_InitStruct.Mode = GPIO_MODE_AF_PP;
 226              		.loc 1 77 5 is_stmt 1 view .LVU64
  77:Src/i2s.c     ****     GPIO_InitStruct.Mode = GPIO_MODE_AF_PP;
 227              		.loc 1 77 25 is_stmt 0 view .LVU65
 228 0074 4023     		movs	r3, #64
 229 0076 0393     		str	r3, [sp, #12]
  78:Src/i2s.c     ****     GPIO_InitStruct.Pull = GPIO_NOPULL;
 230              		.loc 1 78 5 is_stmt 1 view .LVU66
  78:Src/i2s.c     ****     GPIO_InitStruct.Pull = GPIO_NOPULL;
 231              		.loc 1 78 26 is_stmt 0 view .LVU67
 232 0078 0496     		str	r6, [sp, #16]
  79:Src/i2s.c     ****     GPIO_InitStruct.Speed = GPIO_SPEED_FREQ_LOW;
 233              		.loc 1 79 5 is_stmt 1 view .LVU68
  79:Src/i2s.c     ****     GPIO_InitStruct.Speed = GPIO_SPEED_FREQ_LOW;
 234              		.loc 1 79 26 is_stmt 0 view .LVU69
 235 007a 0595     		str	r5, [sp, #20]
  80:Src/i2s.c     ****     GPIO_InitStruct.Alternate = GPIO_AF6_SPI2;
 236              		.loc 1 80 5 is_stmt 1 view .LVU70
  80:Src/i2s.c     ****     GPIO_InitStruct.Alternate = GPIO_AF6_SPI2;
 237              		.loc 1 80 27 is_stmt 0 view .LVU71
 238 007c 0695     		str	r5, [sp, #24]
  81:Src/i2s.c     ****     HAL_GPIO_Init(GPIOC, &GPIO_InitStruct);
ARM GAS  C:\Users\SHINRA~1\AppData\Local\Temp\cc4hGyU0.s 			page 8


 239              		.loc 1 81 5 is_stmt 1 view .LVU72
  81:Src/i2s.c     ****     HAL_GPIO_Init(GPIOC, &GPIO_InitStruct);
 240              		.loc 1 81 31 is_stmt 0 view .LVU73
 241 007e 0623     		movs	r3, #6
 242 0080 0793     		str	r3, [sp, #28]
  82:Src/i2s.c     **** 
 243              		.loc 1 82 5 is_stmt 1 view .LVU74
 244 0082 03A9     		add	r1, sp, #12
 245 0084 2348     		ldr	r0, .L15+8
 246 0086 FFF7FEFF 		bl	HAL_GPIO_Init
 247              	.LVL7:
  86:Src/i2s.c     ****     hdma_spi2_rx.Init.Direction = DMA_PERIPH_TO_MEMORY;
 248              		.loc 1 86 5 view .LVU75
  86:Src/i2s.c     ****     hdma_spi2_rx.Init.Direction = DMA_PERIPH_TO_MEMORY;
 249              		.loc 1 86 27 is_stmt 0 view .LVU76
 250 008a 2348     		ldr	r0, .L15+12
 251 008c 234B     		ldr	r3, .L15+16
 252 008e 0360     		str	r3, [r0]
  87:Src/i2s.c     ****     hdma_spi2_rx.Init.PeriphInc = DMA_PINC_DISABLE;
 253              		.loc 1 87 5 is_stmt 1 view .LVU77
  87:Src/i2s.c     ****     hdma_spi2_rx.Init.PeriphInc = DMA_PINC_DISABLE;
 254              		.loc 1 87 33 is_stmt 0 view .LVU78
 255 0090 4560     		str	r5, [r0, #4]
  88:Src/i2s.c     ****     hdma_spi2_rx.Init.MemInc = DMA_MINC_ENABLE;
 256              		.loc 1 88 5 is_stmt 1 view .LVU79
  88:Src/i2s.c     ****     hdma_spi2_rx.Init.MemInc = DMA_MINC_ENABLE;
 257              		.loc 1 88 33 is_stmt 0 view .LVU80
 258 0092 8560     		str	r5, [r0, #8]
  89:Src/i2s.c     ****     hdma_spi2_rx.Init.PeriphDataAlignment = DMA_PDATAALIGN_HALFWORD;
 259              		.loc 1 89 5 is_stmt 1 view .LVU81
  89:Src/i2s.c     ****     hdma_spi2_rx.Init.PeriphDataAlignment = DMA_PDATAALIGN_HALFWORD;
 260              		.loc 1 89 30 is_stmt 0 view .LVU82
 261 0094 8023     		movs	r3, #128
 262 0096 C360     		str	r3, [r0, #12]
  90:Src/i2s.c     ****     hdma_spi2_rx.Init.MemDataAlignment = DMA_MDATAALIGN_HALFWORD;
 263              		.loc 1 90 5 is_stmt 1 view .LVU83
  90:Src/i2s.c     ****     hdma_spi2_rx.Init.MemDataAlignment = DMA_MDATAALIGN_HALFWORD;
 264              		.loc 1 90 43 is_stmt 0 view .LVU84
 265 0098 4FF48073 		mov	r3, #256
 266 009c 0361     		str	r3, [r0, #16]
  91:Src/i2s.c     ****     hdma_spi2_rx.Init.Mode = DMA_CIRCULAR;
 267              		.loc 1 91 5 is_stmt 1 view .LVU85
  91:Src/i2s.c     ****     hdma_spi2_rx.Init.Mode = DMA_CIRCULAR;
 268              		.loc 1 91 40 is_stmt 0 view .LVU86
 269 009e 4FF48063 		mov	r3, #1024
 270 00a2 4361     		str	r3, [r0, #20]
  92:Src/i2s.c     ****     hdma_spi2_rx.Init.Priority = DMA_PRIORITY_HIGH;
 271              		.loc 1 92 5 is_stmt 1 view .LVU87
  92:Src/i2s.c     ****     hdma_spi2_rx.Init.Priority = DMA_PRIORITY_HIGH;
 272              		.loc 1 92 28 is_stmt 0 view .LVU88
 273 00a4 2023     		movs	r3, #32
 274 00a6 8361     		str	r3, [r0, #24]
  93:Src/i2s.c     ****     if (HAL_DMA_Init(&hdma_spi2_rx) != HAL_OK)
 275              		.loc 1 93 5 is_stmt 1 view .LVU89
  93:Src/i2s.c     ****     if (HAL_DMA_Init(&hdma_spi2_rx) != HAL_OK)
 276              		.loc 1 93 32 is_stmt 0 view .LVU90
 277 00a8 4FF40053 		mov	r3, #8192
ARM GAS  C:\Users\SHINRA~1\AppData\Local\Temp\cc4hGyU0.s 			page 9


 278 00ac C361     		str	r3, [r0, #28]
  94:Src/i2s.c     ****     {
 279              		.loc 1 94 5 is_stmt 1 view .LVU91
  94:Src/i2s.c     ****     {
 280              		.loc 1 94 9 is_stmt 0 view .LVU92
 281 00ae FFF7FEFF 		bl	HAL_DMA_Init
 282              	.LVL8:
  94:Src/i2s.c     ****     {
 283              		.loc 1 94 8 view .LVU93
 284 00b2 28BB     		cbnz	r0, .L13
 285              	.L9:
  99:Src/i2s.c     **** 
 286              		.loc 1 99 5 is_stmt 1 view .LVU94
  99:Src/i2s.c     **** 
 287              		.loc 1 99 5 view .LVU95
 288 00b4 184B     		ldr	r3, .L15+12
 289 00b6 A363     		str	r3, [r4, #56]
  99:Src/i2s.c     **** 
 290              		.loc 1 99 5 view .LVU96
 291 00b8 5C62     		str	r4, [r3, #36]
  99:Src/i2s.c     **** 
 292              		.loc 1 99 5 view .LVU97
 102:Src/i2s.c     ****     hdma_spi2_tx.Init.Direction = DMA_MEMORY_TO_PERIPH;
 293              		.loc 1 102 5 view .LVU98
 102:Src/i2s.c     ****     hdma_spi2_tx.Init.Direction = DMA_MEMORY_TO_PERIPH;
 294              		.loc 1 102 27 is_stmt 0 view .LVU99
 295 00ba 1948     		ldr	r0, .L15+20
 296 00bc 194B     		ldr	r3, .L15+24
 297 00be 0360     		str	r3, [r0]
 103:Src/i2s.c     ****     hdma_spi2_tx.Init.PeriphInc = DMA_PINC_DISABLE;
 298              		.loc 1 103 5 is_stmt 1 view .LVU100
 103:Src/i2s.c     ****     hdma_spi2_tx.Init.PeriphInc = DMA_PINC_DISABLE;
 299              		.loc 1 103 33 is_stmt 0 view .LVU101
 300 00c0 1023     		movs	r3, #16
 301 00c2 4360     		str	r3, [r0, #4]
 104:Src/i2s.c     ****     hdma_spi2_tx.Init.MemInc = DMA_MINC_ENABLE;
 302              		.loc 1 104 5 is_stmt 1 view .LVU102
 104:Src/i2s.c     ****     hdma_spi2_tx.Init.MemInc = DMA_MINC_ENABLE;
 303              		.loc 1 104 33 is_stmt 0 view .LVU103
 304 00c4 0023     		movs	r3, #0
 305 00c6 8360     		str	r3, [r0, #8]
 105:Src/i2s.c     ****     hdma_spi2_tx.Init.PeriphDataAlignment = DMA_PDATAALIGN_HALFWORD;
 306              		.loc 1 105 5 is_stmt 1 view .LVU104
 105:Src/i2s.c     ****     hdma_spi2_tx.Init.PeriphDataAlignment = DMA_PDATAALIGN_HALFWORD;
 307              		.loc 1 105 30 is_stmt 0 view .LVU105
 308 00c8 8023     		movs	r3, #128
 309 00ca C360     		str	r3, [r0, #12]
 106:Src/i2s.c     ****     hdma_spi2_tx.Init.MemDataAlignment = DMA_MDATAALIGN_HALFWORD;
 310              		.loc 1 106 5 is_stmt 1 view .LVU106
 106:Src/i2s.c     ****     hdma_spi2_tx.Init.MemDataAlignment = DMA_MDATAALIGN_HALFWORD;
 311              		.loc 1 106 43 is_stmt 0 view .LVU107
 312 00cc 4FF48073 		mov	r3, #256
 313 00d0 0361     		str	r3, [r0, #16]
 107:Src/i2s.c     ****     hdma_spi2_tx.Init.Mode = DMA_CIRCULAR;
 314              		.loc 1 107 5 is_stmt 1 view .LVU108
 107:Src/i2s.c     ****     hdma_spi2_tx.Init.Mode = DMA_CIRCULAR;
 315              		.loc 1 107 40 is_stmt 0 view .LVU109
ARM GAS  C:\Users\SHINRA~1\AppData\Local\Temp\cc4hGyU0.s 			page 10


 316 00d2 4FF48063 		mov	r3, #1024
 317 00d6 4361     		str	r3, [r0, #20]
 108:Src/i2s.c     ****     hdma_spi2_tx.Init.Priority = DMA_PRIORITY_HIGH;
 318              		.loc 1 108 5 is_stmt 1 view .LVU110
 108:Src/i2s.c     ****     hdma_spi2_tx.Init.Priority = DMA_PRIORITY_HIGH;
 319              		.loc 1 108 28 is_stmt 0 view .LVU111
 320 00d8 2023     		movs	r3, #32
 321 00da 8361     		str	r3, [r0, #24]
 109:Src/i2s.c     ****     if (HAL_DMA_Init(&hdma_spi2_tx) != HAL_OK)
 322              		.loc 1 109 5 is_stmt 1 view .LVU112
 109:Src/i2s.c     ****     if (HAL_DMA_Init(&hdma_spi2_tx) != HAL_OK)
 323              		.loc 1 109 32 is_stmt 0 view .LVU113
 324 00dc 4FF40053 		mov	r3, #8192
 325 00e0 C361     		str	r3, [r0, #28]
 110:Src/i2s.c     ****     {
 326              		.loc 1 110 5 is_stmt 1 view .LVU114
 110:Src/i2s.c     ****     {
 327              		.loc 1 110 9 is_stmt 0 view .LVU115
 328 00e2 FFF7FEFF 		bl	HAL_DMA_Init
 329              	.LVL9:
 110:Src/i2s.c     ****     {
 330              		.loc 1 110 8 view .LVU116
 331 00e6 70B9     		cbnz	r0, .L14
 332              	.L10:
 115:Src/i2s.c     **** 
 333              		.loc 1 115 5 is_stmt 1 view .LVU117
 115:Src/i2s.c     **** 
 334              		.loc 1 115 5 view .LVU118
 335 00e8 0D4B     		ldr	r3, .L15+20
 336 00ea 6363     		str	r3, [r4, #52]
 115:Src/i2s.c     **** 
 337              		.loc 1 115 5 view .LVU119
 338 00ec 5C62     		str	r4, [r3, #36]
 115:Src/i2s.c     **** 
 339              		.loc 1 115 5 view .LVU120
 118:Src/i2s.c     ****     HAL_NVIC_EnableIRQ(SPI2_IRQn);
 340              		.loc 1 118 5 view .LVU121
 341 00ee 0022     		movs	r2, #0
 342 00f0 1146     		mov	r1, r2
 343 00f2 2420     		movs	r0, #36
 344 00f4 FFF7FEFF 		bl	HAL_NVIC_SetPriority
 345              	.LVL10:
 119:Src/i2s.c     ****     /* USER CODE BEGIN SPI2_MspInit 1 */
 346              		.loc 1 119 5 view .LVU122
 347 00f8 2420     		movs	r0, #36
 348 00fa FFF7FEFF 		bl	HAL_NVIC_EnableIRQ
 349              	.LVL11:
 350              		.loc 1 124 1 is_stmt 0 view .LVU123
 351 00fe 8BE7     		b	.L7
 352              	.L13:
  96:Src/i2s.c     ****     }
 353              		.loc 1 96 7 is_stmt 1 view .LVU124
 354 0100 FFF7FEFF 		bl	Error_Handler
 355              	.LVL12:
 356 0104 D6E7     		b	.L9
 357              	.L14:
 112:Src/i2s.c     ****     }
ARM GAS  C:\Users\SHINRA~1\AppData\Local\Temp\cc4hGyU0.s 			page 11


 358              		.loc 1 112 7 view .LVU125
 359 0106 FFF7FEFF 		bl	Error_Handler
 360              	.LVL13:
 361 010a EDE7     		b	.L10
 362              	.L16:
 363              		.align	2
 364              	.L15:
 365 010c 00380040 		.word	1073756160
 366 0110 00040048 		.word	1207960576
 367 0114 00080048 		.word	1207961600
 368 0118 00000000 		.word	hdma_spi2_rx
 369 011c 44000240 		.word	1073872964
 370 0120 00000000 		.word	hdma_spi2_tx
 371 0124 58000240 		.word	1073872984
 372              		.cfi_endproc
 373              	.LFE127:
 375              		.section	.text.HAL_I2S_MspDeInit,"ax",%progbits
 376              		.align	1
 377              		.global	HAL_I2S_MspDeInit
 378              		.syntax unified
 379              		.thumb
 380              		.thumb_func
 381              		.fpu fpv4-sp-d16
 383              	HAL_I2S_MspDeInit:
 384              	.LVL14:
 385              	.LFB128:
 125:Src/i2s.c     **** 
 126:Src/i2s.c     **** void HAL_I2S_MspDeInit(I2S_HandleTypeDef *i2sHandle)
 127:Src/i2s.c     **** {
 386              		.loc 1 127 1 view -0
 387              		.cfi_startproc
 388              		@ args = 0, pretend = 0, frame = 0
 389              		@ frame_needed = 0, uses_anonymous_args = 0
 128:Src/i2s.c     **** 
 129:Src/i2s.c     ****   if (i2sHandle->Instance == SPI2)
 390              		.loc 1 129 3 view .LVU127
 391              		.loc 1 129 16 is_stmt 0 view .LVU128
 392 0000 0268     		ldr	r2, [r0]
 393              		.loc 1 129 6 view .LVU129
 394 0002 0F4B     		ldr	r3, .L24
 395 0004 9A42     		cmp	r2, r3
 396 0006 00D0     		beq	.L23
 397 0008 7047     		bx	lr
 398              	.L23:
 127:Src/i2s.c     **** 
 399              		.loc 1 127 1 view .LVU130
 400 000a 10B5     		push	{r4, lr}
 401              	.LCFI5:
 402              		.cfi_def_cfa_offset 8
 403              		.cfi_offset 4, -8
 404              		.cfi_offset 14, -4
 405 000c 0446     		mov	r4, r0
 130:Src/i2s.c     ****   {
 131:Src/i2s.c     ****     /* USER CODE BEGIN SPI2_MspDeInit 0 */
 132:Src/i2s.c     **** 
 133:Src/i2s.c     ****     /* USER CODE END SPI2_MspDeInit 0 */
 134:Src/i2s.c     ****     /* Peripheral clock disable */
ARM GAS  C:\Users\SHINRA~1\AppData\Local\Temp\cc4hGyU0.s 			page 12


 135:Src/i2s.c     ****     __HAL_RCC_SPI2_CLK_DISABLE();
 406              		.loc 1 135 5 is_stmt 1 view .LVU131
 407 000e 0D4A     		ldr	r2, .L24+4
 408 0010 D369     		ldr	r3, [r2, #28]
 409 0012 23F48043 		bic	r3, r3, #16384
 410 0016 D361     		str	r3, [r2, #28]
 136:Src/i2s.c     **** 
 137:Src/i2s.c     ****     /**I2S2 GPIO Configuration
 138:Src/i2s.c     ****     PB12     ------> I2S2_WS
 139:Src/i2s.c     ****     PB13     ------> I2S2_CK
 140:Src/i2s.c     ****     PB14     ------> I2S2_ext_SD
 141:Src/i2s.c     ****     PB15     ------> I2S2_SD
 142:Src/i2s.c     ****     PC6     ------> I2S2_MCK
 143:Src/i2s.c     ****     */
 144:Src/i2s.c     ****     HAL_GPIO_DeInit(GPIOB, GPIO_PIN_12 | GPIO_PIN_13 | GPIO_PIN_14 | GPIO_PIN_15);
 411              		.loc 1 144 5 view .LVU132
 412 0018 4FF47041 		mov	r1, #61440
 413 001c 0A48     		ldr	r0, .L24+8
 414              	.LVL15:
 415              		.loc 1 144 5 is_stmt 0 view .LVU133
 416 001e FFF7FEFF 		bl	HAL_GPIO_DeInit
 417              	.LVL16:
 145:Src/i2s.c     **** 
 146:Src/i2s.c     ****     HAL_GPIO_DeInit(GPIOC, GPIO_PIN_6);
 418              		.loc 1 146 5 is_stmt 1 view .LVU134
 419 0022 4021     		movs	r1, #64
 420 0024 0948     		ldr	r0, .L24+12
 421 0026 FFF7FEFF 		bl	HAL_GPIO_DeInit
 422              	.LVL17:
 147:Src/i2s.c     **** 
 148:Src/i2s.c     ****     /* I2S2 DMA DeInit */
 149:Src/i2s.c     ****     HAL_DMA_DeInit(i2sHandle->hdmarx);
 423              		.loc 1 149 5 view .LVU135
 424 002a A06B     		ldr	r0, [r4, #56]
 425 002c FFF7FEFF 		bl	HAL_DMA_DeInit
 426              	.LVL18:
 150:Src/i2s.c     ****     HAL_DMA_DeInit(i2sHandle->hdmatx);
 427              		.loc 1 150 5 view .LVU136
 428 0030 606B     		ldr	r0, [r4, #52]
 429 0032 FFF7FEFF 		bl	HAL_DMA_DeInit
 430              	.LVL19:
 151:Src/i2s.c     **** 
 152:Src/i2s.c     ****     /* I2S2 interrupt Deinit */
 153:Src/i2s.c     ****     HAL_NVIC_DisableIRQ(SPI2_IRQn);
 431              		.loc 1 153 5 view .LVU137
 432 0036 2420     		movs	r0, #36
 433 0038 FFF7FEFF 		bl	HAL_NVIC_DisableIRQ
 434              	.LVL20:
 154:Src/i2s.c     ****     /* USER CODE BEGIN SPI2_MspDeInit 1 */
 155:Src/i2s.c     **** 
 156:Src/i2s.c     ****     /* USER CODE END SPI2_MspDeInit 1 */
 157:Src/i2s.c     ****   }
 158:Src/i2s.c     **** }
 435              		.loc 1 158 1 is_stmt 0 view .LVU138
 436 003c 10BD     		pop	{r4, pc}
 437              	.LVL21:
 438              	.L25:
ARM GAS  C:\Users\SHINRA~1\AppData\Local\Temp\cc4hGyU0.s 			page 13


 439              		.loc 1 158 1 view .LVU139
 440 003e 00BF     		.align	2
 441              	.L24:
 442 0040 00380040 		.word	1073756160
 443 0044 00100240 		.word	1073876992
 444 0048 00040048 		.word	1207960576
 445 004c 00080048 		.word	1207961600
 446              		.cfi_endproc
 447              	.LFE128:
 449              		.comm	hdma_spi2_tx,68,4
 450              		.comm	hdma_spi2_rx,68,4
 451              		.comm	hi2s2,68,4
 452              		.text
 453              	.Letext0:
 454              		.file 2 "c:\\program files (x86)\\gnu tools arm embedded\\9 2019-q4-major\\arm-none-eabi\\include\
 455              		.file 3 "c:\\program files (x86)\\gnu tools arm embedded\\9 2019-q4-major\\arm-none-eabi\\include\
 456              		.file 4 "Drivers/CMSIS/Include/core_cm4.h"
 457              		.file 5 "Drivers/CMSIS/Device/ST/STM32F3xx/Include/system_stm32f3xx.h"
 458              		.file 6 "Drivers/CMSIS/Device/ST/STM32F3xx/Include/stm32f303xc.h"
 459              		.file 7 "c:\\program files (x86)\\gnu tools arm embedded\\9 2019-q4-major\\arm-none-eabi\\include\
 460              		.file 8 "c:\\program files (x86)\\gnu tools arm embedded\\9 2019-q4-major\\arm-none-eabi\\include\
 461              		.file 9 "c:\\program files (x86)\\gnu tools arm embedded\\9 2019-q4-major\\lib\\gcc\\arm-none-eabi
 462              		.file 10 "c:\\program files (x86)\\gnu tools arm embedded\\9 2019-q4-major\\arm-none-eabi\\include
 463              		.file 11 "Drivers/STM32F3xx_HAL_Driver/Inc/stm32f3xx_hal_def.h"
 464              		.file 12 "Drivers/STM32F3xx_HAL_Driver/Inc/stm32f3xx_hal_gpio.h"
 465              		.file 13 "Drivers/STM32F3xx_HAL_Driver/Inc/stm32f3xx_hal_dma.h"
 466              		.file 14 "Drivers/STM32F3xx_HAL_Driver/Inc/stm32f3xx_hal_i2s.h"
 467              		.file 15 "Drivers/STM32F3xx_HAL_Driver/Inc/stm32f3xx_hal.h"
 468              		.file 16 "Inc/i2s.h"
 469              		.file 17 "Drivers/STM32F3xx_HAL_Driver/Inc/stm32f3xx_hal_cortex.h"
 470              		.file 18 "Inc/main.h"
ARM GAS  C:\Users\SHINRA~1\AppData\Local\Temp\cc4hGyU0.s 			page 14

