ARM GAS  C:\Users\SHINRA~1\AppData\Local\Temp\ccAauEaV.s 			page 1


   1              		.cpu cortex-m4
   2              		.eabi_attribute 27, 1
   3              		.eabi_attribute 28, 1
   4              		.eabi_attribute 20, 1
   5              		.eabi_attribute 21, 1
   6              		.eabi_attribute 23, 3
   7              		.eabi_attribute 24, 1
   8              		.eabi_attribute 25, 1
   9              		.eabi_attribute 26, 1
  10              		.eabi_attribute 30, 1
  11              		.eabi_attribute 34, 1
  12              		.eabi_attribute 18, 4
  13              		.file	"main.c"
  14              		.text
  15              	.Ltext0:
  16              		.cfi_sections	.debug_frame
  17              		.section	.text.SystemClock_Config,"ax",%progbits
  18              		.align	1
  19              		.global	SystemClock_Config
  20              		.arch armv7e-m
  21              		.syntax unified
  22              		.thumb
  23              		.thumb_func
  24              		.fpu fpv4-sp-d16
  26              	SystemClock_Config:
  27              	.LFB127:
  28              		.file 1 "Src/main.c"
   1:Src/main.c    **** /* USER CODE BEGIN Header */
   2:Src/main.c    **** /**
   3:Src/main.c    ****  ******************************************************************************
   4:Src/main.c    ****  * @file           : main.c
   5:Src/main.c    ****  * @brief          : Main program body
   6:Src/main.c    ****  ******************************************************************************
   7:Src/main.c    ****  * @attention
   8:Src/main.c    ****  *
   9:Src/main.c    ****  * <h2><center>&copy; Copyright (c) 2022 STMicroelectronics.
  10:Src/main.c    ****  * All rights reserved.</center></h2>
  11:Src/main.c    ****  *
  12:Src/main.c    ****  * This software component is licensed by ST under Ultimate Liberty license
  13:Src/main.c    ****  * SLA0044, the "License"; You may not use this file except in compliance with
  14:Src/main.c    ****  * the License. You may obtain a copy of the License at:
  15:Src/main.c    ****  *                             www.st.com/SLA0044
  16:Src/main.c    ****  *
  17:Src/main.c    ****  ******************************************************************************
  18:Src/main.c    ****  */
  19:Src/main.c    **** /* USER CODE END Header */
  20:Src/main.c    **** 
  21:Src/main.c    **** /* Includes ------------------------------------------------------------------*/
  22:Src/main.c    **** #include "main.h"
  23:Src/main.c    **** #include "dma.h"
  24:Src/main.c    **** #include "i2c.h"
  25:Src/main.c    **** #include "i2s.h"
  26:Src/main.c    **** #include "spi.h"
  27:Src/main.c    **** #include "tim.h"
  28:Src/main.c    **** #include "usart.h"
  29:Src/main.c    **** #include "usb_device.h"
  30:Src/main.c    **** #include "gpio.h"
ARM GAS  C:\Users\SHINRA~1\AppData\Local\Temp\ccAauEaV.s 			page 2


  31:Src/main.c    **** #include "led.h"
  32:Src/main.c    **** 
  33:Src/main.c    **** /* Private includes ----------------------------------------------------------*/
  34:Src/main.c    **** /* USER CODE BEGIN Includes */
  35:Src/main.c    **** #define MSIP_VERSION 22
  36:Src/main.c    **** /* USER CODE END Includes */
  37:Src/main.c    **** 
  38:Src/main.c    **** /* Private typedef -----------------------------------------------------------*/
  39:Src/main.c    **** /* USER CODE BEGIN PTD */
  40:Src/main.c    **** 
  41:Src/main.c    **** /* USER CODE END PTD */
  42:Src/main.c    **** 
  43:Src/main.c    **** /* Private define ------------------------------------------------------------*/
  44:Src/main.c    **** /* USER CODE BEGIN PD */
  45:Src/main.c    **** 
  46:Src/main.c    **** /* USER CODE END PD */
  47:Src/main.c    **** 
  48:Src/main.c    **** /* Private macro -------------------------------------------------------------*/
  49:Src/main.c    **** /* USER CODE BEGIN PM */
  50:Src/main.c    **** 
  51:Src/main.c    **** /* USER CODE END PM */
  52:Src/main.c    **** 
  53:Src/main.c    **** /* Private variables ---------------------------------------------------------*/
  54:Src/main.c    **** 
  55:Src/main.c    **** /* USER CODE BEGIN PV */
  56:Src/main.c    **** 
  57:Src/main.c    **** /* USER CODE END PV */
  58:Src/main.c    **** 
  59:Src/main.c    **** /* Private function prototypes -----------------------------------------------*/
  60:Src/main.c    **** void SystemClock_Config(void);
  61:Src/main.c    **** /* USER CODE BEGIN PFP */
  62:Src/main.c    **** 
  63:Src/main.c    **** /* USER CODE END PFP */
  64:Src/main.c    **** 
  65:Src/main.c    **** /* Private user code ---------------------------------------------------------*/
  66:Src/main.c    **** /* USER CODE BEGIN 0 */
  67:Src/main.c    **** uint8_t JP2_MODE = 0, JP1_MODE = 0;
  68:Src/main.c    **** uint8_t TX_Flag = 0;
  69:Src/main.c    **** 
  70:Src/main.c    **** uint8_t ButtonPressed = 0;
  71:Src/main.c    **** uint8_t TransferFlag = 0;
  72:Src/main.c    **** // maybe use 4byte in and 3 byte out?
  73:Src/main.c    **** uint32_t SignalTmp[16] = {0x00};
  74:Src/main.c    **** uint8_t BufSize = 8;
  75:Src/main.c    **** 
  76:Src/main.c    **** uint8_t FLAG_half = 0, FLAG_comp = 0;
  77:Src/main.c    **** /* USER CODE END 0 */
  78:Src/main.c    **** 
  79:Src/main.c    **** /**
  80:Src/main.c    ****  * @brief  The application entry point.
  81:Src/main.c    ****  * @retval int
  82:Src/main.c    ****  */
  83:Src/main.c    **** int main(void)
  84:Src/main.c    **** {
  85:Src/main.c    ****   /* USER CODE BEGIN 1 */
  86:Src/main.c    **** 
  87:Src/main.c    ****   /* USER CODE END 1 */
ARM GAS  C:\Users\SHINRA~1\AppData\Local\Temp\ccAauEaV.s 			page 3


  88:Src/main.c    **** 
  89:Src/main.c    ****   /* MCU Configuration--------------------------------------------------------*/
  90:Src/main.c    **** 
  91:Src/main.c    ****   /* Reset of all peripherals, Initializes the Flash interface and the Systick. */
  92:Src/main.c    ****   HAL_Init();
  93:Src/main.c    **** 
  94:Src/main.c    ****   /* USER CODE BEGIN Init */
  95:Src/main.c    **** 
  96:Src/main.c    ****   /* USER CODE END Init */
  97:Src/main.c    **** 
  98:Src/main.c    ****   /* Configure the system clock */
  99:Src/main.c    ****   SystemClock_Config();
 100:Src/main.c    **** 
 101:Src/main.c    ****   /* USER CODE BEGIN SysInit */
 102:Src/main.c    **** 
 103:Src/main.c    ****   /* USER CODE END SysInit */
 104:Src/main.c    **** 
 105:Src/main.c    ****   /* Initialize all configured peripherals */
 106:Src/main.c    ****   MX_GPIO_Init();
 107:Src/main.c    ****   MX_DMA_Init();
 108:Src/main.c    ****   MX_I2C1_Init();
 109:Src/main.c    ****   MX_SPI1_Init();
 110:Src/main.c    ****   MX_TIM2_Init();
 111:Src/main.c    ****   MX_TIM3_Init();
 112:Src/main.c    ****   MX_TIM4_Init();
 113:Src/main.c    ****   MX_I2S2_Init();
 114:Src/main.c    ****   MX_UART4_Init();
 115:Src/main.c    ****   MX_USART2_UART_Init();
 116:Src/main.c    ****   MX_USB_DEVICE_Init();
 117:Src/main.c    ****   /* USER CODE BEGIN 2 */
 118:Src/main.c    ****   HAL_TIM_Base_Start_IT(&htim3);
 119:Src/main.c    ****   HAL_TIM_Base_Start_IT(&htim4);
 120:Src/main.c    ****   HAL_I2S_Receive_DMA(&hi2s2, (uint16_t *)&SignalTmp[0], BufSize);
 121:Src/main.c    ****   /* USER CODE END 2 */
 122:Src/main.c    **** 
 123:Src/main.c    ****   /* Infinite loop */
 124:Src/main.c    ****   /* USER CODE BEGIN WHILE */
 125:Src/main.c    ****   while (1)
 126:Src/main.c    ****   {
 127:Src/main.c    ****     if (HAL_GPIO_ReadPin(BT_KEY_GPIO_Port, BT_KEY_Pin) == 1)
 128:Src/main.c    ****       ButtonPressed = 1;
 129:Src/main.c    **** 
 130:Src/main.c    ****     if (ButtonPressed)
 131:Src/main.c    ****     {
 132:Src/main.c    ****       if (!TransferFlag)
 133:Src/main.c    ****       {
 134:Src/main.c    ****         HAL_TIM_Base_Start_IT(&htim2);
 135:Src/main.c    ****         HAL_GPIO_WritePin(LD7_GPIO_Port, LD7_Pin, GPIO_PIN_SET);
 136:Src/main.c    ****       }
 137:Src/main.c    ****       else
 138:Src/main.c    ****       {
 139:Src/main.c    ****         HAL_TIM_Base_Stop_IT(&htim2);
 140:Src/main.c    ****         HAL_GPIO_WritePin(LD7_GPIO_Port, LD7_Pin, GPIO_PIN_RESET);
 141:Src/main.c    ****         HAL_GPIO_WritePin(LD4_GPIO_Port, LD4_Pin, GPIO_PIN_RESET);
 142:Src/main.c    ****         HAL_GPIO_WritePin(LD5_GPIO_Port, LD5_Pin, GPIO_PIN_RESET);
 143:Src/main.c    ****       }
 144:Src/main.c    **** 
ARM GAS  C:\Users\SHINRA~1\AppData\Local\Temp\ccAauEaV.s 			page 4


 145:Src/main.c    ****       TransferFlag ^= 1;
 146:Src/main.c    ****       ButtonPressed = 0;
 147:Src/main.c    ****     }
 148:Src/main.c    ****     /* USER CODE END WHILE */
 149:Src/main.c    **** 
 150:Src/main.c    ****     /* USER CODE BEGIN 3 */
 151:Src/main.c    ****     if (FLAG_half)
 152:Src/main.c    ****     {
 153:Src/main.c    ****       FLAG_half = 0;
 154:Src/main.c    ****       // add your code: data shift [0:250]...
 155:Src/main.c    ****       if (TransferFlag)
 156:Src/main.c    ****       {
 157:Src/main.c    ****         CDC_Transmit_FS(&SignalTmp[0], 4 * BufSize);
 158:Src/main.c    ****         BlinkLED(3);
 159:Src/main.c    ****       }
 160:Src/main.c    ****     }
 161:Src/main.c    ****     if (FLAG_comp)
 162:Src/main.c    ****     {
 163:Src/main.c    ****       FLAG_comp = 0;
 164:Src/main.c    ****       // add your code: data shift [250:500]...
 165:Src/main.c    ****       if (TransferFlag)
 166:Src/main.c    ****       {
 167:Src/main.c    ****         CDC_Transmit_FS(&SignalTmp[BufSize], 4 * BufSize);
 168:Src/main.c    ****         BlinkLED(4);
 169:Src/main.c    ****       }
 170:Src/main.c    ****     }
 171:Src/main.c    ****   }
 172:Src/main.c    ****   /* USER CODE END 3 */
 173:Src/main.c    **** }
 174:Src/main.c    **** 
 175:Src/main.c    **** /**
 176:Src/main.c    ****  * @brief System Clock Configuration
 177:Src/main.c    ****  * @retval None
 178:Src/main.c    ****  */
 179:Src/main.c    **** void SystemClock_Config(void)
 180:Src/main.c    **** {
  29              		.loc 1 180 1 view -0
  30              		.cfi_startproc
  31              		@ args = 0, pretend = 0, frame = 120
  32              		@ frame_needed = 0, uses_anonymous_args = 0
  33 0000 30B5     		push	{r4, r5, lr}
  34              	.LCFI0:
  35              		.cfi_def_cfa_offset 12
  36              		.cfi_offset 4, -12
  37              		.cfi_offset 5, -8
  38              		.cfi_offset 14, -4
  39 0002 9FB0     		sub	sp, sp, #124
  40              	.LCFI1:
  41              		.cfi_def_cfa_offset 136
 181:Src/main.c    ****   RCC_OscInitTypeDef RCC_OscInitStruct = {0};
  42              		.loc 1 181 3 view .LVU1
  43              		.loc 1 181 22 is_stmt 0 view .LVU2
  44 0004 0024     		movs	r4, #0
  45 0006 1794     		str	r4, [sp, #92]
  46 0008 1A94     		str	r4, [sp, #104]
 182:Src/main.c    ****   RCC_ClkInitTypeDef RCC_ClkInitStruct = {0};
  47              		.loc 1 182 3 is_stmt 1 view .LVU3
ARM GAS  C:\Users\SHINRA~1\AppData\Local\Temp\ccAauEaV.s 			page 5


  48              		.loc 1 182 22 is_stmt 0 view .LVU4
  49 000a 0F94     		str	r4, [sp, #60]
  50 000c 1094     		str	r4, [sp, #64]
  51 000e 1194     		str	r4, [sp, #68]
  52 0010 1294     		str	r4, [sp, #72]
  53 0012 1394     		str	r4, [sp, #76]
 183:Src/main.c    ****   RCC_PeriphCLKInitTypeDef PeriphClkInit = {0};
  54              		.loc 1 183 3 is_stmt 1 view .LVU5
  55              		.loc 1 183 28 is_stmt 0 view .LVU6
  56 0014 3C22     		movs	r2, #60
  57 0016 2146     		mov	r1, r4
  58 0018 6846     		mov	r0, sp
  59 001a FFF7FEFF 		bl	memset
  60              	.LVL0:
 184:Src/main.c    **** 
 185:Src/main.c    ****   /** Initializes the CPU, AHB and APB busses clocks
 186:Src/main.c    ****    */
 187:Src/main.c    ****   RCC_OscInitStruct.OscillatorType = RCC_OSCILLATORTYPE_HSI | RCC_OSCILLATORTYPE_HSE;
  61              		.loc 1 187 3 is_stmt 1 view .LVU7
  62              		.loc 1 187 36 is_stmt 0 view .LVU8
  63 001e 0323     		movs	r3, #3
  64 0020 1493     		str	r3, [sp, #80]
 188:Src/main.c    ****   RCC_OscInitStruct.HSEState = RCC_HSE_BYPASS;
  65              		.loc 1 188 3 is_stmt 1 view .LVU9
  66              		.loc 1 188 30 is_stmt 0 view .LVU10
  67 0022 4FF4A023 		mov	r3, #327680
  68 0026 1593     		str	r3, [sp, #84]
 189:Src/main.c    ****   RCC_OscInitStruct.HSEPredivValue = RCC_HSE_PREDIV_DIV1;
  69              		.loc 1 189 3 is_stmt 1 view .LVU11
  70              		.loc 1 189 36 is_stmt 0 view .LVU12
  71 0028 1694     		str	r4, [sp, #88]
 190:Src/main.c    ****   RCC_OscInitStruct.HSIState = RCC_HSI_ON;
  72              		.loc 1 190 3 is_stmt 1 view .LVU13
  73              		.loc 1 190 30 is_stmt 0 view .LVU14
  74 002a 0123     		movs	r3, #1
  75 002c 1893     		str	r3, [sp, #96]
 191:Src/main.c    ****   RCC_OscInitStruct.HSICalibrationValue = RCC_HSICALIBRATION_DEFAULT;
  76              		.loc 1 191 3 is_stmt 1 view .LVU15
  77              		.loc 1 191 41 is_stmt 0 view .LVU16
  78 002e 1023     		movs	r3, #16
  79 0030 1993     		str	r3, [sp, #100]
 192:Src/main.c    ****   RCC_OscInitStruct.PLL.PLLState = RCC_PLL_ON;
  80              		.loc 1 192 3 is_stmt 1 view .LVU17
  81              		.loc 1 192 34 is_stmt 0 view .LVU18
  82 0032 0225     		movs	r5, #2
  83 0034 1B95     		str	r5, [sp, #108]
 193:Src/main.c    ****   RCC_OscInitStruct.PLL.PLLSource = RCC_PLLSOURCE_HSE;
  84              		.loc 1 193 3 is_stmt 1 view .LVU19
  85              		.loc 1 193 35 is_stmt 0 view .LVU20
  86 0036 4FF48033 		mov	r3, #65536
  87 003a 1C93     		str	r3, [sp, #112]
 194:Src/main.c    ****   RCC_OscInitStruct.PLL.PLLMUL = RCC_PLL_MUL9;
  88              		.loc 1 194 3 is_stmt 1 view .LVU21
  89              		.loc 1 194 32 is_stmt 0 view .LVU22
  90 003c 4FF4E013 		mov	r3, #1835008
  91 0040 1D93     		str	r3, [sp, #116]
 195:Src/main.c    ****   if (HAL_RCC_OscConfig(&RCC_OscInitStruct) != HAL_OK)
ARM GAS  C:\Users\SHINRA~1\AppData\Local\Temp\ccAauEaV.s 			page 6


  92              		.loc 1 195 3 is_stmt 1 view .LVU23
  93              		.loc 1 195 7 is_stmt 0 view .LVU24
  94 0042 14A8     		add	r0, sp, #80
  95 0044 FFF7FEFF 		bl	HAL_RCC_OscConfig
  96              	.LVL1:
 196:Src/main.c    ****   {
 197:Src/main.c    ****     Error_Handler();
 198:Src/main.c    ****   }
 199:Src/main.c    ****   /** Initializes the CPU, AHB and APB busses clocks
 200:Src/main.c    ****    */
 201:Src/main.c    ****   RCC_ClkInitStruct.ClockType = RCC_CLOCKTYPE_HCLK | RCC_CLOCKTYPE_SYSCLK | RCC_CLOCKTYPE_PCLK1 | R
  97              		.loc 1 201 3 is_stmt 1 view .LVU25
  98              		.loc 1 201 31 is_stmt 0 view .LVU26
  99 0048 0F23     		movs	r3, #15
 100 004a 0F93     		str	r3, [sp, #60]
 202:Src/main.c    ****   RCC_ClkInitStruct.SYSCLKSource = RCC_SYSCLKSOURCE_PLLCLK;
 101              		.loc 1 202 3 is_stmt 1 view .LVU27
 102              		.loc 1 202 34 is_stmt 0 view .LVU28
 103 004c 1095     		str	r5, [sp, #64]
 203:Src/main.c    ****   RCC_ClkInitStruct.AHBCLKDivider = RCC_SYSCLK_DIV1;
 104              		.loc 1 203 3 is_stmt 1 view .LVU29
 105              		.loc 1 203 35 is_stmt 0 view .LVU30
 106 004e 1194     		str	r4, [sp, #68]
 204:Src/main.c    ****   RCC_ClkInitStruct.APB1CLKDivider = RCC_HCLK_DIV2;
 107              		.loc 1 204 3 is_stmt 1 view .LVU31
 108              		.loc 1 204 36 is_stmt 0 view .LVU32
 109 0050 4FF48063 		mov	r3, #1024
 110 0054 1293     		str	r3, [sp, #72]
 205:Src/main.c    ****   RCC_ClkInitStruct.APB2CLKDivider = RCC_HCLK_DIV1;
 111              		.loc 1 205 3 is_stmt 1 view .LVU33
 112              		.loc 1 205 36 is_stmt 0 view .LVU34
 113 0056 1394     		str	r4, [sp, #76]
 206:Src/main.c    **** 
 207:Src/main.c    ****   if (HAL_RCC_ClockConfig(&RCC_ClkInitStruct, FLASH_LATENCY_2) != HAL_OK)
 114              		.loc 1 207 3 is_stmt 1 view .LVU35
 115              		.loc 1 207 7 is_stmt 0 view .LVU36
 116 0058 2946     		mov	r1, r5
 117 005a 0FA8     		add	r0, sp, #60
 118 005c FFF7FEFF 		bl	HAL_RCC_ClockConfig
 119              	.LVL2:
 208:Src/main.c    ****   {
 209:Src/main.c    ****     Error_Handler();
 210:Src/main.c    ****   }
 211:Src/main.c    ****   PeriphClkInit.PeriphClockSelection = RCC_PERIPHCLK_USB | RCC_PERIPHCLK_USART2 | RCC_PERIPHCLK_UAR
 120              		.loc 1 211 3 is_stmt 1 view .LVU37
 121              		.loc 1 211 38 is_stmt 0 view .LVU38
 122 0060 054B     		ldr	r3, .L3
 123 0062 0093     		str	r3, [sp]
 212:Src/main.c    ****   PeriphClkInit.Usart2ClockSelection = RCC_USART2CLKSOURCE_PCLK1;
 124              		.loc 1 212 3 is_stmt 1 view .LVU39
 125              		.loc 1 212 38 is_stmt 0 view .LVU40
 126 0064 0394     		str	r4, [sp, #12]
 213:Src/main.c    ****   PeriphClkInit.Uart4ClockSelection = RCC_UART4CLKSOURCE_PCLK1;
 127              		.loc 1 213 3 is_stmt 1 view .LVU41
 128              		.loc 1 213 37 is_stmt 0 view .LVU42
 129 0066 0594     		str	r4, [sp, #20]
 214:Src/main.c    ****   PeriphClkInit.I2c1ClockSelection = RCC_I2C1CLKSOURCE_HSI;
ARM GAS  C:\Users\SHINRA~1\AppData\Local\Temp\ccAauEaV.s 			page 7


 130              		.loc 1 214 3 is_stmt 1 view .LVU43
 131              		.loc 1 214 36 is_stmt 0 view .LVU44
 132 0068 0794     		str	r4, [sp, #28]
 215:Src/main.c    ****   PeriphClkInit.USBClockSelection = RCC_USBCLKSOURCE_PLL_DIV1_5;
 133              		.loc 1 215 3 is_stmt 1 view .LVU45
 134              		.loc 1 215 35 is_stmt 0 view .LVU46
 135 006a 0E94     		str	r4, [sp, #56]
 216:Src/main.c    ****   if (HAL_RCCEx_PeriphCLKConfig(&PeriphClkInit) != HAL_OK)
 136              		.loc 1 216 3 is_stmt 1 view .LVU47
 137              		.loc 1 216 7 is_stmt 0 view .LVU48
 138 006c 6846     		mov	r0, sp
 139 006e FFF7FEFF 		bl	HAL_RCCEx_PeriphCLKConfig
 140              	.LVL3:
 217:Src/main.c    ****   {
 218:Src/main.c    ****     Error_Handler();
 219:Src/main.c    ****   }
 220:Src/main.c    **** }
 141              		.loc 1 220 1 view .LVU49
 142 0072 1FB0     		add	sp, sp, #124
 143              	.LCFI2:
 144              		.cfi_def_cfa_offset 12
 145              		@ sp needed
 146 0074 30BD     		pop	{r4, r5, pc}
 147              	.L4:
 148 0076 00BF     		.align	2
 149              	.L3:
 150 0078 2A000200 		.word	131114
 151              		.cfi_endproc
 152              	.LFE127:
 154              		.section	.text.main,"ax",%progbits
 155              		.align	1
 156              		.global	main
 157              		.syntax unified
 158              		.thumb
 159              		.thumb_func
 160              		.fpu fpv4-sp-d16
 162              	main:
 163              	.LFB126:
  84:Src/main.c    ****   /* USER CODE BEGIN 1 */
 164              		.loc 1 84 1 is_stmt 1 view -0
 165              		.cfi_startproc
 166              		@ Volatile: function does not return.
 167              		@ args = 0, pretend = 0, frame = 0
 168              		@ frame_needed = 0, uses_anonymous_args = 0
 169 0000 08B5     		push	{r3, lr}
 170              	.LCFI3:
 171              		.cfi_def_cfa_offset 8
 172              		.cfi_offset 3, -8
 173              		.cfi_offset 14, -4
  92:Src/main.c    **** 
 174              		.loc 1 92 3 view .LVU51
 175 0002 FFF7FEFF 		bl	HAL_Init
 176              	.LVL4:
  99:Src/main.c    **** 
 177              		.loc 1 99 3 view .LVU52
 178 0006 FFF7FEFF 		bl	SystemClock_Config
 179              	.LVL5:
ARM GAS  C:\Users\SHINRA~1\AppData\Local\Temp\ccAauEaV.s 			page 8


 106:Src/main.c    ****   MX_DMA_Init();
 180              		.loc 1 106 3 view .LVU53
 181 000a FFF7FEFF 		bl	MX_GPIO_Init
 182              	.LVL6:
 107:Src/main.c    ****   MX_I2C1_Init();
 183              		.loc 1 107 3 view .LVU54
 184 000e FFF7FEFF 		bl	MX_DMA_Init
 185              	.LVL7:
 108:Src/main.c    ****   MX_SPI1_Init();
 186              		.loc 1 108 3 view .LVU55
 187 0012 FFF7FEFF 		bl	MX_I2C1_Init
 188              	.LVL8:
 109:Src/main.c    ****   MX_TIM2_Init();
 189              		.loc 1 109 3 view .LVU56
 190 0016 FFF7FEFF 		bl	MX_SPI1_Init
 191              	.LVL9:
 110:Src/main.c    ****   MX_TIM3_Init();
 192              		.loc 1 110 3 view .LVU57
 193 001a FFF7FEFF 		bl	MX_TIM2_Init
 194              	.LVL10:
 111:Src/main.c    ****   MX_TIM4_Init();
 195              		.loc 1 111 3 view .LVU58
 196 001e FFF7FEFF 		bl	MX_TIM3_Init
 197              	.LVL11:
 112:Src/main.c    ****   MX_I2S2_Init();
 198              		.loc 1 112 3 view .LVU59
 199 0022 FFF7FEFF 		bl	MX_TIM4_Init
 200              	.LVL12:
 113:Src/main.c    ****   MX_UART4_Init();
 201              		.loc 1 113 3 view .LVU60
 202 0026 FFF7FEFF 		bl	MX_I2S2_Init
 203              	.LVL13:
 114:Src/main.c    ****   MX_USART2_UART_Init();
 204              		.loc 1 114 3 view .LVU61
 205 002a FFF7FEFF 		bl	MX_UART4_Init
 206              	.LVL14:
 115:Src/main.c    ****   MX_USB_DEVICE_Init();
 207              		.loc 1 115 3 view .LVU62
 208 002e FFF7FEFF 		bl	MX_USART2_UART_Init
 209              	.LVL15:
 116:Src/main.c    ****   /* USER CODE BEGIN 2 */
 210              		.loc 1 116 3 view .LVU63
 211 0032 FFF7FEFF 		bl	MX_USB_DEVICE_Init
 212              	.LVL16:
 118:Src/main.c    ****   HAL_TIM_Base_Start_IT(&htim4);
 213              		.loc 1 118 3 view .LVU64
 214 0036 3848     		ldr	r0, .L18
 215 0038 FFF7FEFF 		bl	HAL_TIM_Base_Start_IT
 216              	.LVL17:
 119:Src/main.c    ****   HAL_I2S_Receive_DMA(&hi2s2, (uint16_t *)&SignalTmp[0], BufSize);
 217              		.loc 1 119 3 view .LVU65
 218 003c 3748     		ldr	r0, .L18+4
 219 003e FFF7FEFF 		bl	HAL_TIM_Base_Start_IT
 220              	.LVL18:
 120:Src/main.c    ****   /* USER CODE END 2 */
 221              		.loc 1 120 3 view .LVU66
 222 0042 374B     		ldr	r3, .L18+8
ARM GAS  C:\Users\SHINRA~1\AppData\Local\Temp\ccAauEaV.s 			page 9


 223 0044 1A78     		ldrb	r2, [r3]	@ zero_extendqisi2
 224 0046 3749     		ldr	r1, .L18+12
 225 0048 3748     		ldr	r0, .L18+16
 226 004a FFF7FEFF 		bl	HAL_I2S_Receive_DMA
 227              	.LVL19:
 228 004e 2DE0     		b	.L11
 229              	.L17:
 128:Src/main.c    **** 
 230              		.loc 1 128 7 view .LVU67
 128:Src/main.c    **** 
 231              		.loc 1 128 21 is_stmt 0 view .LVU68
 232 0050 364B     		ldr	r3, .L18+20
 233 0052 0122     		movs	r2, #1
 234 0054 1A70     		strb	r2, [r3]
 235 0056 30E0     		b	.L6
 236              	.L8:
 139:Src/main.c    ****         HAL_GPIO_WritePin(LD7_GPIO_Port, LD7_Pin, GPIO_PIN_RESET);
 237              		.loc 1 139 9 is_stmt 1 view .LVU69
 238 0058 3548     		ldr	r0, .L18+24
 239 005a FFF7FEFF 		bl	HAL_TIM_Base_Stop_IT
 240              	.LVL20:
 140:Src/main.c    ****         HAL_GPIO_WritePin(LD4_GPIO_Port, LD4_Pin, GPIO_PIN_RESET);
 241              		.loc 1 140 9 view .LVU70
 242 005e 354C     		ldr	r4, .L18+28
 243 0060 0022     		movs	r2, #0
 244 0062 4FF40061 		mov	r1, #2048
 245 0066 2046     		mov	r0, r4
 246 0068 FFF7FEFF 		bl	HAL_GPIO_WritePin
 247              	.LVL21:
 141:Src/main.c    ****         HAL_GPIO_WritePin(LD5_GPIO_Port, LD5_Pin, GPIO_PIN_RESET);
 248              		.loc 1 141 9 view .LVU71
 249 006c 0022     		movs	r2, #0
 250 006e 4FF48071 		mov	r1, #256
 251 0072 2046     		mov	r0, r4
 252 0074 FFF7FEFF 		bl	HAL_GPIO_WritePin
 253              	.LVL22:
 142:Src/main.c    ****       }
 254              		.loc 1 142 9 view .LVU72
 255 0078 0022     		movs	r2, #0
 256 007a 4FF48061 		mov	r1, #1024
 257 007e 2046     		mov	r0, r4
 258 0080 FFF7FEFF 		bl	HAL_GPIO_WritePin
 259              	.LVL23:
 260              	.L9:
 145:Src/main.c    ****       ButtonPressed = 0;
 261              		.loc 1 145 7 view .LVU73
 145:Src/main.c    ****       ButtonPressed = 0;
 262              		.loc 1 145 20 is_stmt 0 view .LVU74
 263 0084 2C4A     		ldr	r2, .L18+32
 264 0086 1378     		ldrb	r3, [r2]	@ zero_extendqisi2
 265 0088 83F00103 		eor	r3, r3, #1
 266 008c 1370     		strb	r3, [r2]
 146:Src/main.c    ****     }
 267              		.loc 1 146 7 is_stmt 1 view .LVU75
 146:Src/main.c    ****     }
 268              		.loc 1 146 21 is_stmt 0 view .LVU76
 269 008e 274B     		ldr	r3, .L18+20
ARM GAS  C:\Users\SHINRA~1\AppData\Local\Temp\ccAauEaV.s 			page 10


 270 0090 0022     		movs	r2, #0
 271 0092 1A70     		strb	r2, [r3]
 272              	.L7:
 151:Src/main.c    ****     {
 273              		.loc 1 151 5 is_stmt 1 view .LVU77
 151:Src/main.c    ****     {
 274              		.loc 1 151 9 is_stmt 0 view .LVU78
 275 0094 294B     		ldr	r3, .L18+36
 276 0096 1B78     		ldrb	r3, [r3]	@ zero_extendqisi2
 151:Src/main.c    ****     {
 277              		.loc 1 151 8 view .LVU79
 278 0098 2BB1     		cbz	r3, .L10
 153:Src/main.c    ****       // add your code: data shift [0:250]...
 279              		.loc 1 153 7 is_stmt 1 view .LVU80
 153:Src/main.c    ****       // add your code: data shift [0:250]...
 280              		.loc 1 153 17 is_stmt 0 view .LVU81
 281 009a 284B     		ldr	r3, .L18+36
 282 009c 0022     		movs	r2, #0
 283 009e 1A70     		strb	r2, [r3]
 155:Src/main.c    ****       {
 284              		.loc 1 155 7 is_stmt 1 view .LVU82
 155:Src/main.c    ****       {
 285              		.loc 1 155 11 is_stmt 0 view .LVU83
 286 00a0 254B     		ldr	r3, .L18+32
 287 00a2 1B78     		ldrb	r3, [r3]	@ zero_extendqisi2
 155:Src/main.c    ****       {
 288              		.loc 1 155 10 view .LVU84
 289 00a4 DBB9     		cbnz	r3, .L15
 290              	.L10:
 161:Src/main.c    ****     {
 291              		.loc 1 161 5 is_stmt 1 view .LVU85
 161:Src/main.c    ****     {
 292              		.loc 1 161 9 is_stmt 0 view .LVU86
 293 00a6 264B     		ldr	r3, .L18+40
 294 00a8 1B78     		ldrb	r3, [r3]	@ zero_extendqisi2
 161:Src/main.c    ****     {
 295              		.loc 1 161 8 view .LVU87
 296 00aa 13BB     		cbnz	r3, .L16
 297              	.L11:
 125:Src/main.c    ****   {
 298              		.loc 1 125 3 is_stmt 1 view .LVU88
 127:Src/main.c    ****       ButtonPressed = 1;
 299              		.loc 1 127 5 view .LVU89
 127:Src/main.c    ****       ButtonPressed = 1;
 300              		.loc 1 127 9 is_stmt 0 view .LVU90
 301 00ac 4FF48071 		mov	r1, #256
 302 00b0 2448     		ldr	r0, .L18+44
 303 00b2 FFF7FEFF 		bl	HAL_GPIO_ReadPin
 304              	.LVL24:
 127:Src/main.c    ****       ButtonPressed = 1;
 305              		.loc 1 127 8 view .LVU91
 306 00b6 0128     		cmp	r0, #1
 307 00b8 CAD0     		beq	.L17
 308              	.L6:
 130:Src/main.c    ****     {
 309              		.loc 1 130 5 is_stmt 1 view .LVU92
 130:Src/main.c    ****     {
ARM GAS  C:\Users\SHINRA~1\AppData\Local\Temp\ccAauEaV.s 			page 11


 310              		.loc 1 130 9 is_stmt 0 view .LVU93
 311 00ba 1C4B     		ldr	r3, .L18+20
 312 00bc 1B78     		ldrb	r3, [r3]	@ zero_extendqisi2
 130:Src/main.c    ****     {
 313              		.loc 1 130 8 view .LVU94
 314 00be 002B     		cmp	r3, #0
 315 00c0 E8D0     		beq	.L7
 132:Src/main.c    ****       {
 316              		.loc 1 132 7 is_stmt 1 view .LVU95
 132:Src/main.c    ****       {
 317              		.loc 1 132 11 is_stmt 0 view .LVU96
 318 00c2 1D4B     		ldr	r3, .L18+32
 319 00c4 1B78     		ldrb	r3, [r3]	@ zero_extendqisi2
 132:Src/main.c    ****       {
 320              		.loc 1 132 10 view .LVU97
 321 00c6 002B     		cmp	r3, #0
 322 00c8 C6D1     		bne	.L8
 134:Src/main.c    ****         HAL_GPIO_WritePin(LD7_GPIO_Port, LD7_Pin, GPIO_PIN_SET);
 323              		.loc 1 134 9 is_stmt 1 view .LVU98
 324 00ca 1948     		ldr	r0, .L18+24
 325 00cc FFF7FEFF 		bl	HAL_TIM_Base_Start_IT
 326              	.LVL25:
 135:Src/main.c    ****       }
 327              		.loc 1 135 9 view .LVU99
 328 00d0 0122     		movs	r2, #1
 329 00d2 4FF40061 		mov	r1, #2048
 330 00d6 1748     		ldr	r0, .L18+28
 331 00d8 FFF7FEFF 		bl	HAL_GPIO_WritePin
 332              	.LVL26:
 333 00dc D2E7     		b	.L9
 334              	.L15:
 335              	.LBB2:
 157:Src/main.c    ****         BlinkLED(3);
 336              		.loc 1 157 9 view .LVU100
 337 00de 104B     		ldr	r3, .L18+8
 338 00e0 1978     		ldrb	r1, [r3]	@ zero_extendqisi2
 339 00e2 8900     		lsls	r1, r1, #2
 340 00e4 0F48     		ldr	r0, .L18+12
 341 00e6 FFF7FEFF 		bl	CDC_Transmit_FS
 342              	.LVL27:
 158:Src/main.c    ****       }
 343              		.loc 1 158 9 view .LVU101
 344 00ea 0320     		movs	r0, #3
 345 00ec FFF7FEFF 		bl	BlinkLED
 346              	.LVL28:
 347 00f0 D9E7     		b	.L10
 348              	.L16:
 349              	.LBE2:
 163:Src/main.c    ****       // add your code: data shift [250:500]...
 350              		.loc 1 163 7 view .LVU102
 163:Src/main.c    ****       // add your code: data shift [250:500]...
 351              		.loc 1 163 17 is_stmt 0 view .LVU103
 352 00f2 134B     		ldr	r3, .L18+40
 353 00f4 0022     		movs	r2, #0
 354 00f6 1A70     		strb	r2, [r3]
 165:Src/main.c    ****       {
 355              		.loc 1 165 7 is_stmt 1 view .LVU104
ARM GAS  C:\Users\SHINRA~1\AppData\Local\Temp\ccAauEaV.s 			page 12


 165:Src/main.c    ****       {
 356              		.loc 1 165 11 is_stmt 0 view .LVU105
 357 00f8 0F4B     		ldr	r3, .L18+32
 358 00fa 1B78     		ldrb	r3, [r3]	@ zero_extendqisi2
 165:Src/main.c    ****       {
 359              		.loc 1 165 10 view .LVU106
 360 00fc 002B     		cmp	r3, #0
 361 00fe D5D0     		beq	.L11
 362              	.LBB3:
 167:Src/main.c    ****         BlinkLED(4);
 363              		.loc 1 167 9 is_stmt 1 view .LVU107
 167:Src/main.c    ****         BlinkLED(4);
 364              		.loc 1 167 35 is_stmt 0 view .LVU108
 365 0100 074B     		ldr	r3, .L18+8
 366 0102 1B78     		ldrb	r3, [r3]	@ zero_extendqisi2
 167:Src/main.c    ****         BlinkLED(4);
 367              		.loc 1 167 9 view .LVU109
 368 0104 9900     		lsls	r1, r3, #2
 369 0106 0748     		ldr	r0, .L18+12
 370 0108 00EB8300 		add	r0, r0, r3, lsl #2
 371 010c FFF7FEFF 		bl	CDC_Transmit_FS
 372              	.LVL29:
 168:Src/main.c    ****       }
 373              		.loc 1 168 9 is_stmt 1 view .LVU110
 374 0110 0420     		movs	r0, #4
 375 0112 FFF7FEFF 		bl	BlinkLED
 376              	.LVL30:
 377 0116 C9E7     		b	.L11
 378              	.L19:
 379              		.align	2
 380              	.L18:
 381 0118 00000000 		.word	htim3
 382 011c 00000000 		.word	htim4
 383 0120 00000000 		.word	.LANCHOR0
 384 0124 00000000 		.word	.LANCHOR1
 385 0128 00000000 		.word	hi2s2
 386 012c 00000000 		.word	.LANCHOR2
 387 0130 00000000 		.word	htim2
 388 0134 00100048 		.word	1207963648
 389 0138 00000000 		.word	.LANCHOR3
 390 013c 00000000 		.word	.LANCHOR4
 391 0140 00000000 		.word	.LANCHOR5
 392 0144 00080048 		.word	1207961600
 393              	.LBE3:
 394              		.cfi_endproc
 395              	.LFE126:
 397              		.section	.text.HAL_I2S_RxHalfCpltCallback,"ax",%progbits
 398              		.align	1
 399              		.global	HAL_I2S_RxHalfCpltCallback
 400              		.syntax unified
 401              		.thumb
 402              		.thumb_func
 403              		.fpu fpv4-sp-d16
 405              	HAL_I2S_RxHalfCpltCallback:
 406              	.LVL31:
 407              	.LFB128:
 221:Src/main.c    **** 
ARM GAS  C:\Users\SHINRA~1\AppData\Local\Temp\ccAauEaV.s 			page 13


 222:Src/main.c    **** /* USER CODE BEGIN 4 */
 223:Src/main.c    **** void HAL_I2S_RxHalfCpltCallback(I2S_HandleTypeDef *hi2s)
 224:Src/main.c    **** {
 408              		.loc 1 224 1 view -0
 409              		.cfi_startproc
 410              		@ args = 0, pretend = 0, frame = 0
 411              		@ frame_needed = 0, uses_anonymous_args = 0
 412              		@ link register save eliminated.
 225:Src/main.c    ****   FLAG_half = 1; // fill buffer half
 413              		.loc 1 225 3 view .LVU112
 414              		.loc 1 225 13 is_stmt 0 view .LVU113
 415 0000 014B     		ldr	r3, .L21
 416 0002 0122     		movs	r2, #1
 417 0004 1A70     		strb	r2, [r3]
 226:Src/main.c    **** }
 418              		.loc 1 226 1 view .LVU114
 419 0006 7047     		bx	lr
 420              	.L22:
 421              		.align	2
 422              	.L21:
 423 0008 00000000 		.word	.LANCHOR4
 424              		.cfi_endproc
 425              	.LFE128:
 427              		.section	.text.HAL_I2S_RxCpltCallback,"ax",%progbits
 428              		.align	1
 429              		.global	HAL_I2S_RxCpltCallback
 430              		.syntax unified
 431              		.thumb
 432              		.thumb_func
 433              		.fpu fpv4-sp-d16
 435              	HAL_I2S_RxCpltCallback:
 436              	.LVL32:
 437              	.LFB129:
 227:Src/main.c    **** 
 228:Src/main.c    **** void HAL_I2S_RxCpltCallback(I2S_HandleTypeDef *hi2s)
 229:Src/main.c    **** {
 438              		.loc 1 229 1 is_stmt 1 view -0
 439              		.cfi_startproc
 440              		@ args = 0, pretend = 0, frame = 0
 441              		@ frame_needed = 0, uses_anonymous_args = 0
 442              		@ link register save eliminated.
 230:Src/main.c    ****   FLAG_comp = 1;
 443              		.loc 1 230 3 view .LVU116
 444              		.loc 1 230 13 is_stmt 0 view .LVU117
 445 0000 014B     		ldr	r3, .L24
 446 0002 0122     		movs	r2, #1
 447 0004 1A70     		strb	r2, [r3]
 231:Src/main.c    **** }
 448              		.loc 1 231 1 view .LVU118
 449 0006 7047     		bx	lr
 450              	.L25:
 451              		.align	2
 452              	.L24:
 453 0008 00000000 		.word	.LANCHOR5
 454              		.cfi_endproc
 455              	.LFE129:
 457              		.section	.text.Error_Handler,"ax",%progbits
ARM GAS  C:\Users\SHINRA~1\AppData\Local\Temp\ccAauEaV.s 			page 14


 458              		.align	1
 459              		.global	Error_Handler
 460              		.syntax unified
 461              		.thumb
 462              		.thumb_func
 463              		.fpu fpv4-sp-d16
 465              	Error_Handler:
 466              	.LFB130:
 232:Src/main.c    **** /* USER CODE END 4 */
 233:Src/main.c    **** 
 234:Src/main.c    **** /**
 235:Src/main.c    ****  * @brief  This function is executed in case of error occurrence.
 236:Src/main.c    ****  * @retval None
 237:Src/main.c    ****  */
 238:Src/main.c    **** void Error_Handler(void)
 239:Src/main.c    **** {
 467              		.loc 1 239 1 is_stmt 1 view -0
 468              		.cfi_startproc
 469              		@ args = 0, pretend = 0, frame = 0
 470              		@ frame_needed = 0, uses_anonymous_args = 0
 471              		@ link register save eliminated.
 240:Src/main.c    ****   /* USER CODE BEGIN Error_Handler_Debug */
 241:Src/main.c    ****   /* User can add his own implementation to report the HAL error return state */
 242:Src/main.c    **** 
 243:Src/main.c    ****   /* USER CODE END Error_Handler_Debug */
 244:Src/main.c    **** }
 472              		.loc 1 244 1 view .LVU120
 473 0000 7047     		bx	lr
 474              		.cfi_endproc
 475              	.LFE130:
 477              		.global	FLAG_comp
 478              		.global	FLAG_half
 479              		.global	BufSize
 480              		.global	SignalTmp
 481              		.global	TransferFlag
 482              		.global	ButtonPressed
 483              		.global	TX_Flag
 484              		.global	JP1_MODE
 485              		.global	JP2_MODE
 486              		.section	.bss.ButtonPressed,"aw",%nobits
 487              		.set	.LANCHOR2,. + 0
 490              	ButtonPressed:
 491 0000 00       		.space	1
 492              		.section	.bss.FLAG_comp,"aw",%nobits
 493              		.set	.LANCHOR5,. + 0
 496              	FLAG_comp:
 497 0000 00       		.space	1
 498              		.section	.bss.FLAG_half,"aw",%nobits
 499              		.set	.LANCHOR4,. + 0
 502              	FLAG_half:
 503 0000 00       		.space	1
 504              		.section	.bss.JP1_MODE,"aw",%nobits
 507              	JP1_MODE:
 508 0000 00       		.space	1
 509              		.section	.bss.JP2_MODE,"aw",%nobits
 512              	JP2_MODE:
 513 0000 00       		.space	1
ARM GAS  C:\Users\SHINRA~1\AppData\Local\Temp\ccAauEaV.s 			page 15


 514              		.section	.bss.SignalTmp,"aw",%nobits
 515              		.align	2
 516              		.set	.LANCHOR1,. + 0
 519              	SignalTmp:
 520 0000 00000000 		.space	64
 520      00000000 
 520      00000000 
 520      00000000 
 520      00000000 
 521              		.section	.bss.TX_Flag,"aw",%nobits
 524              	TX_Flag:
 525 0000 00       		.space	1
 526              		.section	.bss.TransferFlag,"aw",%nobits
 527              		.set	.LANCHOR3,. + 0
 530              	TransferFlag:
 531 0000 00       		.space	1
 532              		.section	.data.BufSize,"aw"
 533              		.set	.LANCHOR0,. + 0
 536              	BufSize:
 537 0000 08       		.byte	8
 538              		.text
 539              	.Letext0:
 540              		.file 2 "c:\\program files (x86)\\gnu tools arm embedded\\9 2019-q4-major\\arm-none-eabi\\include\
 541              		.file 3 "c:\\program files (x86)\\gnu tools arm embedded\\9 2019-q4-major\\arm-none-eabi\\include\
 542              		.file 4 "Drivers/CMSIS/Include/core_cm4.h"
 543              		.file 5 "Drivers/CMSIS/Device/ST/STM32F3xx/Include/system_stm32f3xx.h"
 544              		.file 6 "Drivers/CMSIS/Device/ST/STM32F3xx/Include/stm32f303xc.h"
 545              		.file 7 "c:\\program files (x86)\\gnu tools arm embedded\\9 2019-q4-major\\arm-none-eabi\\include\
 546              		.file 8 "c:\\program files (x86)\\gnu tools arm embedded\\9 2019-q4-major\\arm-none-eabi\\include\
 547              		.file 9 "c:\\program files (x86)\\gnu tools arm embedded\\9 2019-q4-major\\lib\\gcc\\arm-none-eabi
 548              		.file 10 "c:\\program files (x86)\\gnu tools arm embedded\\9 2019-q4-major\\arm-none-eabi\\include
 549              		.file 11 "Drivers/STM32F3xx_HAL_Driver/Inc/stm32f3xx_hal_def.h"
 550              		.file 12 "Drivers/STM32F3xx_HAL_Driver/Inc/stm32f3xx_hal_rcc.h"
 551              		.file 13 "Drivers/STM32F3xx_HAL_Driver/Inc/stm32f3xx_hal_rcc_ex.h"
 552              		.file 14 "Drivers/STM32F3xx_HAL_Driver/Inc/stm32f3xx_hal_gpio.h"
 553              		.file 15 "Drivers/STM32F3xx_HAL_Driver/Inc/stm32f3xx_hal_dma.h"
 554              		.file 16 "Drivers/STM32F3xx_HAL_Driver/Inc/stm32f3xx_hal_i2c.h"
 555              		.file 17 "Drivers/STM32F3xx_HAL_Driver/Inc/stm32f3xx_hal_i2s.h"
 556              		.file 18 "Drivers/STM32F3xx_HAL_Driver/Inc/stm32f3xx_hal_spi.h"
 557              		.file 19 "Drivers/STM32F3xx_HAL_Driver/Inc/stm32f3xx_hal_tim.h"
 558              		.file 20 "Drivers/STM32F3xx_HAL_Driver/Inc/stm32f3xx_hal_uart.h"
 559              		.file 21 "Drivers/STM32F3xx_HAL_Driver/Inc/stm32f3xx_hal.h"
 560              		.file 22 "Inc/i2c.h"
 561              		.file 23 "Inc/i2s.h"
 562              		.file 24 "Inc/spi.h"
 563              		.file 25 "Inc/tim.h"
 564              		.file 26 "Inc/usart.h"
 565              		.file 27 "c:\\program files (x86)\\gnu tools arm embedded\\9 2019-q4-major\\arm-none-eabi\\include
 566              		.file 28 "Inc/led.h"
 567              		.file 29 "Inc/gpio.h"
 568              		.file 30 "Inc/dma.h"
 569              		.file 31 "Inc/usb_device.h"
 570              		.file 32 "<built-in>"
ARM GAS  C:\Users\SHINRA~1\AppData\Local\Temp\ccAauEaV.s 			page 16

