ARM GAS  C:\Users\SHINRA~1\AppData\Local\Temp\ccBXzGic.s 			page 1


   1              		.cpu cortex-m4
   2              		.eabi_attribute 27, 1
   3              		.eabi_attribute 28, 1
   4              		.eabi_attribute 20, 1
   5              		.eabi_attribute 21, 1
   6              		.eabi_attribute 23, 3
   7              		.eabi_attribute 24, 1
   8              		.eabi_attribute 25, 1
   9              		.eabi_attribute 26, 1
  10              		.eabi_attribute 30, 1
  11              		.eabi_attribute 34, 1
  12              		.eabi_attribute 18, 4
  13              		.file	"stm32f3xx_hal_i2s.c"
  14              		.text
  15              	.Ltext0:
  16              		.cfi_sections	.debug_frame
  17              		.section	.text.I2S_WaitFlagStateUntilTimeout,"ax",%progbits
  18              		.align	1
  19              		.arch armv7e-m
  20              		.syntax unified
  21              		.thumb
  22              		.thumb_func
  23              		.fpu fpv4-sp-d16
  25              	I2S_WaitFlagStateUntilTimeout:
  26              	.LVL0:
  27              	.LFB154:
  28              		.file 1 "Drivers/STM32F3xx_HAL_Driver/Src/stm32f3xx_hal_i2s.c"
   1:Drivers/STM32F3xx_HAL_Driver/Src/stm32f3xx_hal_i2s.c **** /**
   2:Drivers/STM32F3xx_HAL_Driver/Src/stm32f3xx_hal_i2s.c ****   ******************************************************************************
   3:Drivers/STM32F3xx_HAL_Driver/Src/stm32f3xx_hal_i2s.c ****   * @file    stm32f3xx_hal_i2s.c
   4:Drivers/STM32F3xx_HAL_Driver/Src/stm32f3xx_hal_i2s.c ****   * @author  MCD Application Team
   5:Drivers/STM32F3xx_HAL_Driver/Src/stm32f3xx_hal_i2s.c ****   * @brief   I2S HAL module driver.
   6:Drivers/STM32F3xx_HAL_Driver/Src/stm32f3xx_hal_i2s.c ****   *          This file provides firmware functions to manage the following 
   7:Drivers/STM32F3xx_HAL_Driver/Src/stm32f3xx_hal_i2s.c ****   *          functionalities of the Integrated Interchip Sound (I2S) peripheral:
   8:Drivers/STM32F3xx_HAL_Driver/Src/stm32f3xx_hal_i2s.c ****   *           + Initialization and de-initialization functions
   9:Drivers/STM32F3xx_HAL_Driver/Src/stm32f3xx_hal_i2s.c ****   *           + IO operation functions
  10:Drivers/STM32F3xx_HAL_Driver/Src/stm32f3xx_hal_i2s.c ****   *           + Peripheral State and Errors functions
  11:Drivers/STM32F3xx_HAL_Driver/Src/stm32f3xx_hal_i2s.c ****   @verbatim
  12:Drivers/STM32F3xx_HAL_Driver/Src/stm32f3xx_hal_i2s.c ****  ===============================================================================
  13:Drivers/STM32F3xx_HAL_Driver/Src/stm32f3xx_hal_i2s.c ****                   ##### How to use this driver #####
  14:Drivers/STM32F3xx_HAL_Driver/Src/stm32f3xx_hal_i2s.c ****  ===============================================================================
  15:Drivers/STM32F3xx_HAL_Driver/Src/stm32f3xx_hal_i2s.c ****  [..]
  16:Drivers/STM32F3xx_HAL_Driver/Src/stm32f3xx_hal_i2s.c ****     The I2S HAL driver can be used as follows:
  17:Drivers/STM32F3xx_HAL_Driver/Src/stm32f3xx_hal_i2s.c ****     
  18:Drivers/STM32F3xx_HAL_Driver/Src/stm32f3xx_hal_i2s.c ****     (#) Declare a I2S_HandleTypeDef handle structure.
  19:Drivers/STM32F3xx_HAL_Driver/Src/stm32f3xx_hal_i2s.c ****     (#) Initialize the I2S low level resources by implement the HAL_I2S_MspInit() API:
  20:Drivers/STM32F3xx_HAL_Driver/Src/stm32f3xx_hal_i2s.c ****         (##) Enable the SPIx interface clock.                      
  21:Drivers/STM32F3xx_HAL_Driver/Src/stm32f3xx_hal_i2s.c ****         (##) I2S pins configuration:
  22:Drivers/STM32F3xx_HAL_Driver/Src/stm32f3xx_hal_i2s.c ****             (+++) Enable the clock for the I2S GPIOs.
  23:Drivers/STM32F3xx_HAL_Driver/Src/stm32f3xx_hal_i2s.c ****             (+++) Configure these I2S pins as alternate function pull-up.
  24:Drivers/STM32F3xx_HAL_Driver/Src/stm32f3xx_hal_i2s.c ****         (##) NVIC configuration if you need to use interrupt process (HAL_I2S_Transmit_IT()
  25:Drivers/STM32F3xx_HAL_Driver/Src/stm32f3xx_hal_i2s.c ****              and HAL_I2S_Receive_IT() APIs).
  26:Drivers/STM32F3xx_HAL_Driver/Src/stm32f3xx_hal_i2s.c ****             (+++) Configure the I2Sx interrupt priority.
  27:Drivers/STM32F3xx_HAL_Driver/Src/stm32f3xx_hal_i2s.c ****             (+++) Enable the NVIC I2S IRQ handle.
  28:Drivers/STM32F3xx_HAL_Driver/Src/stm32f3xx_hal_i2s.c ****         (##) DMA Configuration if you need to use DMA process (HAL_I2S_Transmit_DMA()
  29:Drivers/STM32F3xx_HAL_Driver/Src/stm32f3xx_hal_i2s.c ****              and HAL_I2S_Receive_DMA() APIs:
  30:Drivers/STM32F3xx_HAL_Driver/Src/stm32f3xx_hal_i2s.c ****             (+++) Declare a DMA handle structure for the Tx/Rx channel.
ARM GAS  C:\Users\SHINRA~1\AppData\Local\Temp\ccBXzGic.s 			page 2


  31:Drivers/STM32F3xx_HAL_Driver/Src/stm32f3xx_hal_i2s.c ****             (+++) Enable the DMAx interface clock.
  32:Drivers/STM32F3xx_HAL_Driver/Src/stm32f3xx_hal_i2s.c ****             (+++) Configure the declared DMA handle structure with the required Tx/Rx parameters.
  33:Drivers/STM32F3xx_HAL_Driver/Src/stm32f3xx_hal_i2s.c ****             (+++) Configure the DMA Tx/Rx Channel.
  34:Drivers/STM32F3xx_HAL_Driver/Src/stm32f3xx_hal_i2s.c ****             (+++) Associate the initilalized DMA handle to the I2S DMA Tx/Rx handle.
  35:Drivers/STM32F3xx_HAL_Driver/Src/stm32f3xx_hal_i2s.c ****             (+++) Configure the priority and enable the NVIC for the transfer complete interrupt on
  36:Drivers/STM32F3xx_HAL_Driver/Src/stm32f3xx_hal_i2s.c ****                 DMA Tx/Rx Channel.
  37:Drivers/STM32F3xx_HAL_Driver/Src/stm32f3xx_hal_i2s.c ****   
  38:Drivers/STM32F3xx_HAL_Driver/Src/stm32f3xx_hal_i2s.c ****    (#) Program the Mode, Standard, Data Format, MCLK Output, Audio frequency and Polarity
  39:Drivers/STM32F3xx_HAL_Driver/Src/stm32f3xx_hal_i2s.c ****        using HAL_I2S_Init() function.
  40:Drivers/STM32F3xx_HAL_Driver/Src/stm32f3xx_hal_i2s.c **** 
  41:Drivers/STM32F3xx_HAL_Driver/Src/stm32f3xx_hal_i2s.c ****    -@- The specific I2S interrupts (Transmission complete interrupt, 
  42:Drivers/STM32F3xx_HAL_Driver/Src/stm32f3xx_hal_i2s.c ****        RXNE interrupt and Error Interrupts) will be managed using the macros
  43:Drivers/STM32F3xx_HAL_Driver/Src/stm32f3xx_hal_i2s.c ****        __HAL_I2S_ENABLE_IT() and __HAL_I2S_DISABLE_IT() inside the transmit and receive process.
  44:Drivers/STM32F3xx_HAL_Driver/Src/stm32f3xx_hal_i2s.c ****    -@- Make sure that either:
  45:Drivers/STM32F3xx_HAL_Driver/Src/stm32f3xx_hal_i2s.c ****        (+@) I2S clock is configured based on SYSCLK or 
  46:Drivers/STM32F3xx_HAL_Driver/Src/stm32f3xx_hal_i2s.c ****        (+@) External clock source is configured after setting correctly 
  47:Drivers/STM32F3xx_HAL_Driver/Src/stm32f3xx_hal_i2s.c ****             the define constant EXTERNAL_CLOCK_VALUE in the stm32f3xx_hal_conf.h file. 
  48:Drivers/STM32F3xx_HAL_Driver/Src/stm32f3xx_hal_i2s.c **** 
  49:Drivers/STM32F3xx_HAL_Driver/Src/stm32f3xx_hal_i2s.c ****    (#) Three mode of operations are available within this driver :
  50:Drivers/STM32F3xx_HAL_Driver/Src/stm32f3xx_hal_i2s.c ****   
  51:Drivers/STM32F3xx_HAL_Driver/Src/stm32f3xx_hal_i2s.c ****    *** Polling mode IO operation ***
  52:Drivers/STM32F3xx_HAL_Driver/Src/stm32f3xx_hal_i2s.c ****    =================================
  53:Drivers/STM32F3xx_HAL_Driver/Src/stm32f3xx_hal_i2s.c ****    [..]    
  54:Drivers/STM32F3xx_HAL_Driver/Src/stm32f3xx_hal_i2s.c ****      (+) Send an amount of data in blocking mode using HAL_I2S_Transmit() 
  55:Drivers/STM32F3xx_HAL_Driver/Src/stm32f3xx_hal_i2s.c ****      (+) Receive an amount of data in blocking mode using HAL_I2S_Receive()
  56:Drivers/STM32F3xx_HAL_Driver/Src/stm32f3xx_hal_i2s.c ****    
  57:Drivers/STM32F3xx_HAL_Driver/Src/stm32f3xx_hal_i2s.c ****    *** Interrupt mode IO operation ***
  58:Drivers/STM32F3xx_HAL_Driver/Src/stm32f3xx_hal_i2s.c ****    ===================================
  59:Drivers/STM32F3xx_HAL_Driver/Src/stm32f3xx_hal_i2s.c ****    [..]    
  60:Drivers/STM32F3xx_HAL_Driver/Src/stm32f3xx_hal_i2s.c ****      (+) Send an amount of data in non blocking mode using HAL_I2S_Transmit_IT() 
  61:Drivers/STM32F3xx_HAL_Driver/Src/stm32f3xx_hal_i2s.c ****      (+) At transmission end of half transfer HAL_I2S_TxHalfCpltCallback is executed and user can 
  62:Drivers/STM32F3xx_HAL_Driver/Src/stm32f3xx_hal_i2s.c ****          add his own code by customization of function pointer HAL_I2S_TxHalfCpltCallback 
  63:Drivers/STM32F3xx_HAL_Driver/Src/stm32f3xx_hal_i2s.c ****      (+) At transmission end of transfer HAL_I2S_TxCpltCallback is executed and user can 
  64:Drivers/STM32F3xx_HAL_Driver/Src/stm32f3xx_hal_i2s.c ****          add his own code by customization of function pointer HAL_I2S_TxCpltCallback
  65:Drivers/STM32F3xx_HAL_Driver/Src/stm32f3xx_hal_i2s.c ****      (+) Receive an amount of data in non blocking mode using HAL_I2S_Receive_IT() 
  66:Drivers/STM32F3xx_HAL_Driver/Src/stm32f3xx_hal_i2s.c ****      (+) At reception end of half transfer HAL_I2S_RxHalfCpltCallback is executed and user can 
  67:Drivers/STM32F3xx_HAL_Driver/Src/stm32f3xx_hal_i2s.c ****          add his own code by customization of function pointer HAL_I2S_RxHalfCpltCallback 
  68:Drivers/STM32F3xx_HAL_Driver/Src/stm32f3xx_hal_i2s.c ****      (+) At reception end of transfer HAL_I2S_RxCpltCallback is executed and user can 
  69:Drivers/STM32F3xx_HAL_Driver/Src/stm32f3xx_hal_i2s.c ****          add his own code by customization of function pointer HAL_I2S_RxCpltCallback
  70:Drivers/STM32F3xx_HAL_Driver/Src/stm32f3xx_hal_i2s.c ****      (+) In case of transfer Error, HAL_I2S_ErrorCallback() function is executed and user can 
  71:Drivers/STM32F3xx_HAL_Driver/Src/stm32f3xx_hal_i2s.c ****          add his own code by customization of function pointer HAL_I2S_ErrorCallback
  72:Drivers/STM32F3xx_HAL_Driver/Src/stm32f3xx_hal_i2s.c **** 
  73:Drivers/STM32F3xx_HAL_Driver/Src/stm32f3xx_hal_i2s.c ****    *** DMA mode IO operation ***
  74:Drivers/STM32F3xx_HAL_Driver/Src/stm32f3xx_hal_i2s.c ****    ==============================
  75:Drivers/STM32F3xx_HAL_Driver/Src/stm32f3xx_hal_i2s.c ****    [..] 
  76:Drivers/STM32F3xx_HAL_Driver/Src/stm32f3xx_hal_i2s.c ****      (+) Send an amount of data in non blocking mode (DMA) using HAL_I2S_Transmit_DMA() 
  77:Drivers/STM32F3xx_HAL_Driver/Src/stm32f3xx_hal_i2s.c ****      (+) At transmission end of half transfer HAL_I2S_TxHalfCpltCallback is executed and user can 
  78:Drivers/STM32F3xx_HAL_Driver/Src/stm32f3xx_hal_i2s.c ****          add his own code by customization of function pointer HAL_I2S_TxHalfCpltCallback 
  79:Drivers/STM32F3xx_HAL_Driver/Src/stm32f3xx_hal_i2s.c ****      (+) At transmission end of transfer HAL_I2S_TxCpltCallback is executed and user can 
  80:Drivers/STM32F3xx_HAL_Driver/Src/stm32f3xx_hal_i2s.c ****          add his own code by customization of function pointer HAL_I2S_TxCpltCallback
  81:Drivers/STM32F3xx_HAL_Driver/Src/stm32f3xx_hal_i2s.c ****      (+) Receive an amount of data in non blocking mode (DMA) using HAL_I2S_Receive_DMA() 
  82:Drivers/STM32F3xx_HAL_Driver/Src/stm32f3xx_hal_i2s.c ****      (+) At reception end of half transfer HAL_I2S_RxHalfCpltCallback is executed and user can 
  83:Drivers/STM32F3xx_HAL_Driver/Src/stm32f3xx_hal_i2s.c ****          add his own code by customization of function pointer HAL_I2S_RxHalfCpltCallback 
  84:Drivers/STM32F3xx_HAL_Driver/Src/stm32f3xx_hal_i2s.c ****      (+) At reception end of transfer HAL_I2S_RxCpltCallback is executed and user can 
  85:Drivers/STM32F3xx_HAL_Driver/Src/stm32f3xx_hal_i2s.c ****          add his own code by customization of function pointer HAL_I2S_RxCpltCallback
  86:Drivers/STM32F3xx_HAL_Driver/Src/stm32f3xx_hal_i2s.c ****      (+) In case of transfer Error, HAL_I2S_ErrorCallback() function is executed and user can 
  87:Drivers/STM32F3xx_HAL_Driver/Src/stm32f3xx_hal_i2s.c ****          add his own code by customization of function pointer HAL_I2S_ErrorCallback
ARM GAS  C:\Users\SHINRA~1\AppData\Local\Temp\ccBXzGic.s 			page 3


  88:Drivers/STM32F3xx_HAL_Driver/Src/stm32f3xx_hal_i2s.c ****      (+) Pause the DMA Transfer using HAL_I2S_DMAPause()
  89:Drivers/STM32F3xx_HAL_Driver/Src/stm32f3xx_hal_i2s.c ****      (+) Resume the DMA Transfer using HAL_I2S_DMAResume()
  90:Drivers/STM32F3xx_HAL_Driver/Src/stm32f3xx_hal_i2s.c ****      (+) Stop the DMA Transfer using HAL_I2S_DMAStop()
  91:Drivers/STM32F3xx_HAL_Driver/Src/stm32f3xx_hal_i2s.c **** 
  92:Drivers/STM32F3xx_HAL_Driver/Src/stm32f3xx_hal_i2s.c ****    *** I2S HAL driver macros list ***
  93:Drivers/STM32F3xx_HAL_Driver/Src/stm32f3xx_hal_i2s.c ****    =============================================
  94:Drivers/STM32F3xx_HAL_Driver/Src/stm32f3xx_hal_i2s.c ****    [..]
  95:Drivers/STM32F3xx_HAL_Driver/Src/stm32f3xx_hal_i2s.c ****      Below the list of most used macros in I2S HAL driver.
  96:Drivers/STM32F3xx_HAL_Driver/Src/stm32f3xx_hal_i2s.c ****        
  97:Drivers/STM32F3xx_HAL_Driver/Src/stm32f3xx_hal_i2s.c ****       (+) __HAL_I2S_ENABLE: Enable the specified SPI peripheral (in I2S mode) 
  98:Drivers/STM32F3xx_HAL_Driver/Src/stm32f3xx_hal_i2s.c ****       (+) __HAL_I2S_DISABLE: Disable the specified SPI peripheral (in I2S mode)
  99:Drivers/STM32F3xx_HAL_Driver/Src/stm32f3xx_hal_i2s.c ****       (+) __HAL_I2S_ENABLE_IT : Enable the specified I2S interrupts
 100:Drivers/STM32F3xx_HAL_Driver/Src/stm32f3xx_hal_i2s.c ****       (+) __HAL_I2S_DISABLE_IT : Disable the specified I2S interrupts
 101:Drivers/STM32F3xx_HAL_Driver/Src/stm32f3xx_hal_i2s.c ****       (+) __HAL_I2S_GET_FLAG: Check whether the specified I2S flag is set or not
 102:Drivers/STM32F3xx_HAL_Driver/Src/stm32f3xx_hal_i2s.c **** 
 103:Drivers/STM32F3xx_HAL_Driver/Src/stm32f3xx_hal_i2s.c ****     [..]
 104:Drivers/STM32F3xx_HAL_Driver/Src/stm32f3xx_hal_i2s.c ****       (@) You can refer to the I2S HAL driver header file for more useful macros
 105:Drivers/STM32F3xx_HAL_Driver/Src/stm32f3xx_hal_i2s.c **** 
 106:Drivers/STM32F3xx_HAL_Driver/Src/stm32f3xx_hal_i2s.c ****   @endverbatim
 107:Drivers/STM32F3xx_HAL_Driver/Src/stm32f3xx_hal_i2s.c ****   ******************************************************************************
 108:Drivers/STM32F3xx_HAL_Driver/Src/stm32f3xx_hal_i2s.c ****   * @attention
 109:Drivers/STM32F3xx_HAL_Driver/Src/stm32f3xx_hal_i2s.c ****   *
 110:Drivers/STM32F3xx_HAL_Driver/Src/stm32f3xx_hal_i2s.c ****   * <h2><center>&copy; COPYRIGHT(c) 2016 STMicroelectronics</center></h2>
 111:Drivers/STM32F3xx_HAL_Driver/Src/stm32f3xx_hal_i2s.c ****   *
 112:Drivers/STM32F3xx_HAL_Driver/Src/stm32f3xx_hal_i2s.c ****   * Redistribution and use in source and binary forms, with or without modification,
 113:Drivers/STM32F3xx_HAL_Driver/Src/stm32f3xx_hal_i2s.c ****   * are permitted provided that the following conditions are met:
 114:Drivers/STM32F3xx_HAL_Driver/Src/stm32f3xx_hal_i2s.c ****   *   1. Redistributions of source code must retain the above copyright notice,
 115:Drivers/STM32F3xx_HAL_Driver/Src/stm32f3xx_hal_i2s.c ****   *      this list of conditions and the following disclaimer.
 116:Drivers/STM32F3xx_HAL_Driver/Src/stm32f3xx_hal_i2s.c ****   *   2. Redistributions in binary form must reproduce the above copyright notice,
 117:Drivers/STM32F3xx_HAL_Driver/Src/stm32f3xx_hal_i2s.c ****   *      this list of conditions and the following disclaimer in the documentation
 118:Drivers/STM32F3xx_HAL_Driver/Src/stm32f3xx_hal_i2s.c ****   *      and/or other materials provided with the distribution.
 119:Drivers/STM32F3xx_HAL_Driver/Src/stm32f3xx_hal_i2s.c ****   *   3. Neither the name of STMicroelectronics nor the names of its contributors
 120:Drivers/STM32F3xx_HAL_Driver/Src/stm32f3xx_hal_i2s.c ****   *      may be used to endorse or promote products derived from this software
 121:Drivers/STM32F3xx_HAL_Driver/Src/stm32f3xx_hal_i2s.c ****   *      without specific prior written permission.
 122:Drivers/STM32F3xx_HAL_Driver/Src/stm32f3xx_hal_i2s.c ****   *
 123:Drivers/STM32F3xx_HAL_Driver/Src/stm32f3xx_hal_i2s.c ****   * THIS SOFTWARE IS PROVIDED BY THE COPYRIGHT HOLDERS AND CONTRIBUTORS "AS IS"
 124:Drivers/STM32F3xx_HAL_Driver/Src/stm32f3xx_hal_i2s.c ****   * AND ANY EXPRESS OR IMPLIED WARRANTIES, INCLUDING, BUT NOT LIMITED TO, THE
 125:Drivers/STM32F3xx_HAL_Driver/Src/stm32f3xx_hal_i2s.c ****   * IMPLIED WARRANTIES OF MERCHANTABILITY AND FITNESS FOR A PARTICULAR PURPOSE ARE
 126:Drivers/STM32F3xx_HAL_Driver/Src/stm32f3xx_hal_i2s.c ****   * DISCLAIMED. IN NO EVENT SHALL THE COPYRIGHT HOLDER OR CONTRIBUTORS BE LIABLE
 127:Drivers/STM32F3xx_HAL_Driver/Src/stm32f3xx_hal_i2s.c ****   * FOR ANY DIRECT, INDIRECT, INCIDENTAL, SPECIAL, EXEMPLARY, OR CONSEQUENTIAL
 128:Drivers/STM32F3xx_HAL_Driver/Src/stm32f3xx_hal_i2s.c ****   * DAMAGES (INCLUDING, BUT NOT LIMITED TO, PROCUREMENT OF SUBSTITUTE GOODS OR
 129:Drivers/STM32F3xx_HAL_Driver/Src/stm32f3xx_hal_i2s.c ****   * SERVICES; LOSS OF USE, DATA, OR PROFITS; OR BUSINESS INTERRUPTION) HOWEVER
 130:Drivers/STM32F3xx_HAL_Driver/Src/stm32f3xx_hal_i2s.c ****   * CAUSED AND ON ANY THEORY OF LIABILITY, WHETHER IN CONTRACT, STRICT LIABILITY,
 131:Drivers/STM32F3xx_HAL_Driver/Src/stm32f3xx_hal_i2s.c ****   * OR TORT (INCLUDING NEGLIGENCE OR OTHERWISE) ARISING IN ANY WAY OUT OF THE USE
 132:Drivers/STM32F3xx_HAL_Driver/Src/stm32f3xx_hal_i2s.c ****   * OF THIS SOFTWARE, EVEN IF ADVISED OF THE POSSIBILITY OF SUCH DAMAGE.
 133:Drivers/STM32F3xx_HAL_Driver/Src/stm32f3xx_hal_i2s.c ****   *
 134:Drivers/STM32F3xx_HAL_Driver/Src/stm32f3xx_hal_i2s.c ****   ******************************************************************************
 135:Drivers/STM32F3xx_HAL_Driver/Src/stm32f3xx_hal_i2s.c ****   */ 
 136:Drivers/STM32F3xx_HAL_Driver/Src/stm32f3xx_hal_i2s.c **** 
 137:Drivers/STM32F3xx_HAL_Driver/Src/stm32f3xx_hal_i2s.c **** /* Includes ------------------------------------------------------------------*/
 138:Drivers/STM32F3xx_HAL_Driver/Src/stm32f3xx_hal_i2s.c **** #include "stm32f3xx_hal.h"
 139:Drivers/STM32F3xx_HAL_Driver/Src/stm32f3xx_hal_i2s.c **** 
 140:Drivers/STM32F3xx_HAL_Driver/Src/stm32f3xx_hal_i2s.c **** #ifdef HAL_I2S_MODULE_ENABLED
 141:Drivers/STM32F3xx_HAL_Driver/Src/stm32f3xx_hal_i2s.c **** 
 142:Drivers/STM32F3xx_HAL_Driver/Src/stm32f3xx_hal_i2s.c **** #if defined(STM32F302xE) || defined(STM32F303xE) || defined(STM32F398xx) || \
 143:Drivers/STM32F3xx_HAL_Driver/Src/stm32f3xx_hal_i2s.c ****     defined(STM32F302xC) || defined(STM32F303xC) || defined(STM32F358xx) || \
 144:Drivers/STM32F3xx_HAL_Driver/Src/stm32f3xx_hal_i2s.c ****     defined(STM32F301x8) || defined(STM32F302x8) || defined(STM32F318xx) || \
ARM GAS  C:\Users\SHINRA~1\AppData\Local\Temp\ccBXzGic.s 			page 4


 145:Drivers/STM32F3xx_HAL_Driver/Src/stm32f3xx_hal_i2s.c ****     defined(STM32F373xC) || defined(STM32F378xx)
 146:Drivers/STM32F3xx_HAL_Driver/Src/stm32f3xx_hal_i2s.c **** 
 147:Drivers/STM32F3xx_HAL_Driver/Src/stm32f3xx_hal_i2s.c **** /** @addtogroup STM32F3xx_HAL_Driver
 148:Drivers/STM32F3xx_HAL_Driver/Src/stm32f3xx_hal_i2s.c ****   * @{
 149:Drivers/STM32F3xx_HAL_Driver/Src/stm32f3xx_hal_i2s.c ****   */
 150:Drivers/STM32F3xx_HAL_Driver/Src/stm32f3xx_hal_i2s.c **** 
 151:Drivers/STM32F3xx_HAL_Driver/Src/stm32f3xx_hal_i2s.c **** /** @defgroup I2S I2S
 152:Drivers/STM32F3xx_HAL_Driver/Src/stm32f3xx_hal_i2s.c ****   * @brief I2S HAL module driver
 153:Drivers/STM32F3xx_HAL_Driver/Src/stm32f3xx_hal_i2s.c ****   * @{
 154:Drivers/STM32F3xx_HAL_Driver/Src/stm32f3xx_hal_i2s.c ****   */
 155:Drivers/STM32F3xx_HAL_Driver/Src/stm32f3xx_hal_i2s.c **** 
 156:Drivers/STM32F3xx_HAL_Driver/Src/stm32f3xx_hal_i2s.c **** /* Private typedef -----------------------------------------------------------*/
 157:Drivers/STM32F3xx_HAL_Driver/Src/stm32f3xx_hal_i2s.c **** /* Private define ------------------------------------------------------------*/
 158:Drivers/STM32F3xx_HAL_Driver/Src/stm32f3xx_hal_i2s.c **** /* Private macro -------------------------------------------------------------*/
 159:Drivers/STM32F3xx_HAL_Driver/Src/stm32f3xx_hal_i2s.c **** /* Private variables ---------------------------------------------------------*/
 160:Drivers/STM32F3xx_HAL_Driver/Src/stm32f3xx_hal_i2s.c **** /* Private function prototypes -----------------------------------------------*/
 161:Drivers/STM32F3xx_HAL_Driver/Src/stm32f3xx_hal_i2s.c **** /** @defgroup I2S_Private_Functions I2S Private Functions
 162:Drivers/STM32F3xx_HAL_Driver/Src/stm32f3xx_hal_i2s.c ****   * @{
 163:Drivers/STM32F3xx_HAL_Driver/Src/stm32f3xx_hal_i2s.c ****   */
 164:Drivers/STM32F3xx_HAL_Driver/Src/stm32f3xx_hal_i2s.c **** static void               I2S_DMATxCplt(DMA_HandleTypeDef *hdma);
 165:Drivers/STM32F3xx_HAL_Driver/Src/stm32f3xx_hal_i2s.c **** static void               I2S_DMATxHalfCplt(DMA_HandleTypeDef *hdma);
 166:Drivers/STM32F3xx_HAL_Driver/Src/stm32f3xx_hal_i2s.c **** static void               I2S_DMARxCplt(DMA_HandleTypeDef *hdma);
 167:Drivers/STM32F3xx_HAL_Driver/Src/stm32f3xx_hal_i2s.c **** static void               I2S_DMARxHalfCplt(DMA_HandleTypeDef *hdma);
 168:Drivers/STM32F3xx_HAL_Driver/Src/stm32f3xx_hal_i2s.c **** static void               I2S_DMAError(DMA_HandleTypeDef *hdma);
 169:Drivers/STM32F3xx_HAL_Driver/Src/stm32f3xx_hal_i2s.c **** static void               I2S_Transmit_IT(I2S_HandleTypeDef *hi2s);
 170:Drivers/STM32F3xx_HAL_Driver/Src/stm32f3xx_hal_i2s.c **** static void               I2S_Receive_IT(I2S_HandleTypeDef *hi2s);
 171:Drivers/STM32F3xx_HAL_Driver/Src/stm32f3xx_hal_i2s.c **** static HAL_StatusTypeDef  I2S_WaitFlagStateUntilTimeout(I2S_HandleTypeDef *hi2s, uint32_t Flag, uin
 172:Drivers/STM32F3xx_HAL_Driver/Src/stm32f3xx_hal_i2s.c **** /**
 173:Drivers/STM32F3xx_HAL_Driver/Src/stm32f3xx_hal_i2s.c ****   * @}
 174:Drivers/STM32F3xx_HAL_Driver/Src/stm32f3xx_hal_i2s.c ****   */
 175:Drivers/STM32F3xx_HAL_Driver/Src/stm32f3xx_hal_i2s.c **** 
 176:Drivers/STM32F3xx_HAL_Driver/Src/stm32f3xx_hal_i2s.c **** /* Exported functions ---------------------------------------------------------*/
 177:Drivers/STM32F3xx_HAL_Driver/Src/stm32f3xx_hal_i2s.c **** 
 178:Drivers/STM32F3xx_HAL_Driver/Src/stm32f3xx_hal_i2s.c **** /** @defgroup I2S_Exported_Functions I2S Exported Functions
 179:Drivers/STM32F3xx_HAL_Driver/Src/stm32f3xx_hal_i2s.c ****   * @{
 180:Drivers/STM32F3xx_HAL_Driver/Src/stm32f3xx_hal_i2s.c ****   */
 181:Drivers/STM32F3xx_HAL_Driver/Src/stm32f3xx_hal_i2s.c **** 
 182:Drivers/STM32F3xx_HAL_Driver/Src/stm32f3xx_hal_i2s.c **** /** @defgroup  I2S_Exported_Functions_Group1 Initialization and de-initialization functions 
 183:Drivers/STM32F3xx_HAL_Driver/Src/stm32f3xx_hal_i2s.c ****   *  @brief    Initialization and Configuration functions 
 184:Drivers/STM32F3xx_HAL_Driver/Src/stm32f3xx_hal_i2s.c ****   *
 185:Drivers/STM32F3xx_HAL_Driver/Src/stm32f3xx_hal_i2s.c **** @verbatim    
 186:Drivers/STM32F3xx_HAL_Driver/Src/stm32f3xx_hal_i2s.c ****  ===============================================================================
 187:Drivers/STM32F3xx_HAL_Driver/Src/stm32f3xx_hal_i2s.c ****               ##### Initialization and de-initialization functions #####
 188:Drivers/STM32F3xx_HAL_Driver/Src/stm32f3xx_hal_i2s.c ****  ===============================================================================
 189:Drivers/STM32F3xx_HAL_Driver/Src/stm32f3xx_hal_i2s.c ****     [..]  This subsection provides a set of functions allowing to initialize and 
 190:Drivers/STM32F3xx_HAL_Driver/Src/stm32f3xx_hal_i2s.c ****           de-initialiaze the I2Sx peripheral in simplex mode:
 191:Drivers/STM32F3xx_HAL_Driver/Src/stm32f3xx_hal_i2s.c **** 
 192:Drivers/STM32F3xx_HAL_Driver/Src/stm32f3xx_hal_i2s.c ****       (+) User must Implement HAL_I2S_MspInit() function in which he configures 
 193:Drivers/STM32F3xx_HAL_Driver/Src/stm32f3xx_hal_i2s.c ****           all related peripherals resources (CLOCK, GPIO, DMA, IT and NVIC ).
 194:Drivers/STM32F3xx_HAL_Driver/Src/stm32f3xx_hal_i2s.c **** 
 195:Drivers/STM32F3xx_HAL_Driver/Src/stm32f3xx_hal_i2s.c ****       (+) Call the function HAL_I2S_Init() to configure the selected device with 
 196:Drivers/STM32F3xx_HAL_Driver/Src/stm32f3xx_hal_i2s.c ****           the selected configuration:
 197:Drivers/STM32F3xx_HAL_Driver/Src/stm32f3xx_hal_i2s.c ****         (++) Mode
 198:Drivers/STM32F3xx_HAL_Driver/Src/stm32f3xx_hal_i2s.c ****         (++) Standard 
 199:Drivers/STM32F3xx_HAL_Driver/Src/stm32f3xx_hal_i2s.c ****         (++) Data Format
 200:Drivers/STM32F3xx_HAL_Driver/Src/stm32f3xx_hal_i2s.c ****         (++) MCLK Output
 201:Drivers/STM32F3xx_HAL_Driver/Src/stm32f3xx_hal_i2s.c ****         (++) Audio frequency
ARM GAS  C:\Users\SHINRA~1\AppData\Local\Temp\ccBXzGic.s 			page 5


 202:Drivers/STM32F3xx_HAL_Driver/Src/stm32f3xx_hal_i2s.c ****         (++) Polarity
 203:Drivers/STM32F3xx_HAL_Driver/Src/stm32f3xx_hal_i2s.c ****         (++) Full duplex mode
 204:Drivers/STM32F3xx_HAL_Driver/Src/stm32f3xx_hal_i2s.c **** 
 205:Drivers/STM32F3xx_HAL_Driver/Src/stm32f3xx_hal_i2s.c ****       (+) Call the function HAL_I2S_DeInit() to restore the default configuration 
 206:Drivers/STM32F3xx_HAL_Driver/Src/stm32f3xx_hal_i2s.c ****           of the selected I2Sx periperal. 
 207:Drivers/STM32F3xx_HAL_Driver/Src/stm32f3xx_hal_i2s.c **** @endverbatim
 208:Drivers/STM32F3xx_HAL_Driver/Src/stm32f3xx_hal_i2s.c ****   * @{
 209:Drivers/STM32F3xx_HAL_Driver/Src/stm32f3xx_hal_i2s.c ****   */
 210:Drivers/STM32F3xx_HAL_Driver/Src/stm32f3xx_hal_i2s.c **** 
 211:Drivers/STM32F3xx_HAL_Driver/Src/stm32f3xx_hal_i2s.c **** /**
 212:Drivers/STM32F3xx_HAL_Driver/Src/stm32f3xx_hal_i2s.c ****   * @brief Initializes the I2S according to the specified parameters 
 213:Drivers/STM32F3xx_HAL_Driver/Src/stm32f3xx_hal_i2s.c ****   *         in the I2S_InitTypeDef and create the associated handle.
 214:Drivers/STM32F3xx_HAL_Driver/Src/stm32f3xx_hal_i2s.c ****   * @param  hi2s: pointer to a I2S_HandleTypeDef structure that contains
 215:Drivers/STM32F3xx_HAL_Driver/Src/stm32f3xx_hal_i2s.c ****   *         the configuration information for I2S module
 216:Drivers/STM32F3xx_HAL_Driver/Src/stm32f3xx_hal_i2s.c ****   * @retval HAL status
 217:Drivers/STM32F3xx_HAL_Driver/Src/stm32f3xx_hal_i2s.c ****   */
 218:Drivers/STM32F3xx_HAL_Driver/Src/stm32f3xx_hal_i2s.c **** __weak HAL_StatusTypeDef HAL_I2S_Init(I2S_HandleTypeDef *hi2s)
 219:Drivers/STM32F3xx_HAL_Driver/Src/stm32f3xx_hal_i2s.c **** {
 220:Drivers/STM32F3xx_HAL_Driver/Src/stm32f3xx_hal_i2s.c ****   /* Prevent unused argument(s) compilation warning */
 221:Drivers/STM32F3xx_HAL_Driver/Src/stm32f3xx_hal_i2s.c ****   UNUSED(hi2s);
 222:Drivers/STM32F3xx_HAL_Driver/Src/stm32f3xx_hal_i2s.c **** 
 223:Drivers/STM32F3xx_HAL_Driver/Src/stm32f3xx_hal_i2s.c ****   /* Note : This function is defined into this file for library reference.  */
 224:Drivers/STM32F3xx_HAL_Driver/Src/stm32f3xx_hal_i2s.c ****   /*        Function content is located into file stm32f3xx_hal_i2s_ex.c to */
 225:Drivers/STM32F3xx_HAL_Driver/Src/stm32f3xx_hal_i2s.c ****   /*        handle the possible I2S interfaces defined in STM32F3xx devices */
 226:Drivers/STM32F3xx_HAL_Driver/Src/stm32f3xx_hal_i2s.c ****   
 227:Drivers/STM32F3xx_HAL_Driver/Src/stm32f3xx_hal_i2s.c ****   /* Return error status as not implemented here */
 228:Drivers/STM32F3xx_HAL_Driver/Src/stm32f3xx_hal_i2s.c ****   return HAL_ERROR;
 229:Drivers/STM32F3xx_HAL_Driver/Src/stm32f3xx_hal_i2s.c **** }
 230:Drivers/STM32F3xx_HAL_Driver/Src/stm32f3xx_hal_i2s.c **** 
 231:Drivers/STM32F3xx_HAL_Driver/Src/stm32f3xx_hal_i2s.c **** /**
 232:Drivers/STM32F3xx_HAL_Driver/Src/stm32f3xx_hal_i2s.c ****   * @brief DeInitializes the I2S peripheral 
 233:Drivers/STM32F3xx_HAL_Driver/Src/stm32f3xx_hal_i2s.c ****   * @param  hi2s: pointer to a I2S_HandleTypeDef structure that contains
 234:Drivers/STM32F3xx_HAL_Driver/Src/stm32f3xx_hal_i2s.c ****   *         the configuration information for I2S module
 235:Drivers/STM32F3xx_HAL_Driver/Src/stm32f3xx_hal_i2s.c ****   * @retval HAL status
 236:Drivers/STM32F3xx_HAL_Driver/Src/stm32f3xx_hal_i2s.c ****   */
 237:Drivers/STM32F3xx_HAL_Driver/Src/stm32f3xx_hal_i2s.c **** HAL_StatusTypeDef HAL_I2S_DeInit(I2S_HandleTypeDef *hi2s)
 238:Drivers/STM32F3xx_HAL_Driver/Src/stm32f3xx_hal_i2s.c **** {
 239:Drivers/STM32F3xx_HAL_Driver/Src/stm32f3xx_hal_i2s.c ****   /* Check the I2S handle allocation */
 240:Drivers/STM32F3xx_HAL_Driver/Src/stm32f3xx_hal_i2s.c ****   if(hi2s == NULL)
 241:Drivers/STM32F3xx_HAL_Driver/Src/stm32f3xx_hal_i2s.c ****   {
 242:Drivers/STM32F3xx_HAL_Driver/Src/stm32f3xx_hal_i2s.c ****     return HAL_ERROR;
 243:Drivers/STM32F3xx_HAL_Driver/Src/stm32f3xx_hal_i2s.c ****   }
 244:Drivers/STM32F3xx_HAL_Driver/Src/stm32f3xx_hal_i2s.c ****   
 245:Drivers/STM32F3xx_HAL_Driver/Src/stm32f3xx_hal_i2s.c ****   /* Check the parameters */
 246:Drivers/STM32F3xx_HAL_Driver/Src/stm32f3xx_hal_i2s.c ****   assert_param(IS_I2S_ALL_INSTANCE(hi2s->Instance));
 247:Drivers/STM32F3xx_HAL_Driver/Src/stm32f3xx_hal_i2s.c **** 
 248:Drivers/STM32F3xx_HAL_Driver/Src/stm32f3xx_hal_i2s.c ****   hi2s->State = HAL_I2S_STATE_BUSY;
 249:Drivers/STM32F3xx_HAL_Driver/Src/stm32f3xx_hal_i2s.c ****   
 250:Drivers/STM32F3xx_HAL_Driver/Src/stm32f3xx_hal_i2s.c ****   /* DeInit the low level hardware: GPIO, CLOCK, NVIC... */
 251:Drivers/STM32F3xx_HAL_Driver/Src/stm32f3xx_hal_i2s.c ****   HAL_I2S_MspDeInit(hi2s);
 252:Drivers/STM32F3xx_HAL_Driver/Src/stm32f3xx_hal_i2s.c **** 
 253:Drivers/STM32F3xx_HAL_Driver/Src/stm32f3xx_hal_i2s.c ****   hi2s->ErrorCode = HAL_I2S_ERROR_NONE;
 254:Drivers/STM32F3xx_HAL_Driver/Src/stm32f3xx_hal_i2s.c ****   hi2s->State = HAL_I2S_STATE_RESET;
 255:Drivers/STM32F3xx_HAL_Driver/Src/stm32f3xx_hal_i2s.c **** 
 256:Drivers/STM32F3xx_HAL_Driver/Src/stm32f3xx_hal_i2s.c ****   /* Release Lock */
 257:Drivers/STM32F3xx_HAL_Driver/Src/stm32f3xx_hal_i2s.c ****   __HAL_UNLOCK(hi2s);
 258:Drivers/STM32F3xx_HAL_Driver/Src/stm32f3xx_hal_i2s.c **** 
ARM GAS  C:\Users\SHINRA~1\AppData\Local\Temp\ccBXzGic.s 			page 6


 259:Drivers/STM32F3xx_HAL_Driver/Src/stm32f3xx_hal_i2s.c ****   return HAL_OK;
 260:Drivers/STM32F3xx_HAL_Driver/Src/stm32f3xx_hal_i2s.c **** }
 261:Drivers/STM32F3xx_HAL_Driver/Src/stm32f3xx_hal_i2s.c **** 
 262:Drivers/STM32F3xx_HAL_Driver/Src/stm32f3xx_hal_i2s.c **** /**
 263:Drivers/STM32F3xx_HAL_Driver/Src/stm32f3xx_hal_i2s.c ****   * @brief I2S MSP Init
 264:Drivers/STM32F3xx_HAL_Driver/Src/stm32f3xx_hal_i2s.c ****   * @param  hi2s: pointer to a I2S_HandleTypeDef structure that contains
 265:Drivers/STM32F3xx_HAL_Driver/Src/stm32f3xx_hal_i2s.c ****   *         the configuration information for I2S module
 266:Drivers/STM32F3xx_HAL_Driver/Src/stm32f3xx_hal_i2s.c ****   * @retval None
 267:Drivers/STM32F3xx_HAL_Driver/Src/stm32f3xx_hal_i2s.c ****   */
 268:Drivers/STM32F3xx_HAL_Driver/Src/stm32f3xx_hal_i2s.c ****  __weak void HAL_I2S_MspInit(I2S_HandleTypeDef *hi2s)
 269:Drivers/STM32F3xx_HAL_Driver/Src/stm32f3xx_hal_i2s.c **** {
 270:Drivers/STM32F3xx_HAL_Driver/Src/stm32f3xx_hal_i2s.c ****   /* Prevent unused argument(s) compilation warning */
 271:Drivers/STM32F3xx_HAL_Driver/Src/stm32f3xx_hal_i2s.c ****   UNUSED(hi2s);
 272:Drivers/STM32F3xx_HAL_Driver/Src/stm32f3xx_hal_i2s.c **** 
 273:Drivers/STM32F3xx_HAL_Driver/Src/stm32f3xx_hal_i2s.c ****   /* NOTE : This function Should not be modified, when the callback is needed,
 274:Drivers/STM32F3xx_HAL_Driver/Src/stm32f3xx_hal_i2s.c ****             the HAL_I2S_MspInit could be implemented in the user file
 275:Drivers/STM32F3xx_HAL_Driver/Src/stm32f3xx_hal_i2s.c ****    */ 
 276:Drivers/STM32F3xx_HAL_Driver/Src/stm32f3xx_hal_i2s.c **** }
 277:Drivers/STM32F3xx_HAL_Driver/Src/stm32f3xx_hal_i2s.c **** 
 278:Drivers/STM32F3xx_HAL_Driver/Src/stm32f3xx_hal_i2s.c **** /**
 279:Drivers/STM32F3xx_HAL_Driver/Src/stm32f3xx_hal_i2s.c ****   * @brief I2S MSP DeInit
 280:Drivers/STM32F3xx_HAL_Driver/Src/stm32f3xx_hal_i2s.c ****   * @param  hi2s: pointer to a I2S_HandleTypeDef structure that contains
 281:Drivers/STM32F3xx_HAL_Driver/Src/stm32f3xx_hal_i2s.c ****   *         the configuration information for I2S module
 282:Drivers/STM32F3xx_HAL_Driver/Src/stm32f3xx_hal_i2s.c ****   * @retval None
 283:Drivers/STM32F3xx_HAL_Driver/Src/stm32f3xx_hal_i2s.c ****   */
 284:Drivers/STM32F3xx_HAL_Driver/Src/stm32f3xx_hal_i2s.c ****  __weak void HAL_I2S_MspDeInit(I2S_HandleTypeDef *hi2s)
 285:Drivers/STM32F3xx_HAL_Driver/Src/stm32f3xx_hal_i2s.c **** {
 286:Drivers/STM32F3xx_HAL_Driver/Src/stm32f3xx_hal_i2s.c ****   /* Prevent unused argument(s) compilation warning */
 287:Drivers/STM32F3xx_HAL_Driver/Src/stm32f3xx_hal_i2s.c ****   UNUSED(hi2s);
 288:Drivers/STM32F3xx_HAL_Driver/Src/stm32f3xx_hal_i2s.c **** 
 289:Drivers/STM32F3xx_HAL_Driver/Src/stm32f3xx_hal_i2s.c ****   /* NOTE : This function Should not be modified, when the callback is needed,
 290:Drivers/STM32F3xx_HAL_Driver/Src/stm32f3xx_hal_i2s.c ****             the HAL_I2S_MspDeInit could be implemented in the user file
 291:Drivers/STM32F3xx_HAL_Driver/Src/stm32f3xx_hal_i2s.c ****    */ 
 292:Drivers/STM32F3xx_HAL_Driver/Src/stm32f3xx_hal_i2s.c **** }
 293:Drivers/STM32F3xx_HAL_Driver/Src/stm32f3xx_hal_i2s.c **** 
 294:Drivers/STM32F3xx_HAL_Driver/Src/stm32f3xx_hal_i2s.c **** /**
 295:Drivers/STM32F3xx_HAL_Driver/Src/stm32f3xx_hal_i2s.c ****   * @}
 296:Drivers/STM32F3xx_HAL_Driver/Src/stm32f3xx_hal_i2s.c ****   */
 297:Drivers/STM32F3xx_HAL_Driver/Src/stm32f3xx_hal_i2s.c **** 
 298:Drivers/STM32F3xx_HAL_Driver/Src/stm32f3xx_hal_i2s.c **** /** @defgroup I2S_Exported_Functions_Group2 IO operation functions 
 299:Drivers/STM32F3xx_HAL_Driver/Src/stm32f3xx_hal_i2s.c ****   *  @brief Data transfers functions 
 300:Drivers/STM32F3xx_HAL_Driver/Src/stm32f3xx_hal_i2s.c ****   *
 301:Drivers/STM32F3xx_HAL_Driver/Src/stm32f3xx_hal_i2s.c **** @verbatim   
 302:Drivers/STM32F3xx_HAL_Driver/Src/stm32f3xx_hal_i2s.c ****  ===============================================================================
 303:Drivers/STM32F3xx_HAL_Driver/Src/stm32f3xx_hal_i2s.c ****                       ##### IO operation functions #####
 304:Drivers/STM32F3xx_HAL_Driver/Src/stm32f3xx_hal_i2s.c ****  ===============================================================================
 305:Drivers/STM32F3xx_HAL_Driver/Src/stm32f3xx_hal_i2s.c ****     [..]
 306:Drivers/STM32F3xx_HAL_Driver/Src/stm32f3xx_hal_i2s.c ****     This subsection provides a set of functions allowing to manage the I2S data 
 307:Drivers/STM32F3xx_HAL_Driver/Src/stm32f3xx_hal_i2s.c ****     transfers.
 308:Drivers/STM32F3xx_HAL_Driver/Src/stm32f3xx_hal_i2s.c **** 
 309:Drivers/STM32F3xx_HAL_Driver/Src/stm32f3xx_hal_i2s.c ****     (#) There are two modes of transfer:
 310:Drivers/STM32F3xx_HAL_Driver/Src/stm32f3xx_hal_i2s.c ****        (++) Blocking mode : The communication is performed in the polling mode. 
 311:Drivers/STM32F3xx_HAL_Driver/Src/stm32f3xx_hal_i2s.c ****             The status of all data processing is returned by the same function 
 312:Drivers/STM32F3xx_HAL_Driver/Src/stm32f3xx_hal_i2s.c ****             after finishing transfer.  
 313:Drivers/STM32F3xx_HAL_Driver/Src/stm32f3xx_hal_i2s.c ****        (++) No-Blocking mode : The communication is performed using Interrupts 
 314:Drivers/STM32F3xx_HAL_Driver/Src/stm32f3xx_hal_i2s.c ****             or DMA. These functions return the status of the transfer startup.
 315:Drivers/STM32F3xx_HAL_Driver/Src/stm32f3xx_hal_i2s.c ****             The end of the data processing will be indicated through the 
ARM GAS  C:\Users\SHINRA~1\AppData\Local\Temp\ccBXzGic.s 			page 7


 316:Drivers/STM32F3xx_HAL_Driver/Src/stm32f3xx_hal_i2s.c ****             dedicated I2S IRQ when using Interrupt mode or the DMA IRQ when 
 317:Drivers/STM32F3xx_HAL_Driver/Src/stm32f3xx_hal_i2s.c ****             using DMA mode.
 318:Drivers/STM32F3xx_HAL_Driver/Src/stm32f3xx_hal_i2s.c **** 
 319:Drivers/STM32F3xx_HAL_Driver/Src/stm32f3xx_hal_i2s.c ****     (#) Blocking mode functions are :
 320:Drivers/STM32F3xx_HAL_Driver/Src/stm32f3xx_hal_i2s.c ****         (++) HAL_I2S_Transmit()
 321:Drivers/STM32F3xx_HAL_Driver/Src/stm32f3xx_hal_i2s.c ****         (++) HAL_I2S_Receive()
 322:Drivers/STM32F3xx_HAL_Driver/Src/stm32f3xx_hal_i2s.c ****         
 323:Drivers/STM32F3xx_HAL_Driver/Src/stm32f3xx_hal_i2s.c ****     (#) No-Blocking mode functions with Interrupt are :
 324:Drivers/STM32F3xx_HAL_Driver/Src/stm32f3xx_hal_i2s.c ****         (++) HAL_I2S_Transmit_IT()
 325:Drivers/STM32F3xx_HAL_Driver/Src/stm32f3xx_hal_i2s.c ****         (++) HAL_I2S_Receive_IT()
 326:Drivers/STM32F3xx_HAL_Driver/Src/stm32f3xx_hal_i2s.c **** 
 327:Drivers/STM32F3xx_HAL_Driver/Src/stm32f3xx_hal_i2s.c ****     (#) No-Blocking mode functions with DMA are :
 328:Drivers/STM32F3xx_HAL_Driver/Src/stm32f3xx_hal_i2s.c ****         (++) HAL_I2S_Transmit_DMA()
 329:Drivers/STM32F3xx_HAL_Driver/Src/stm32f3xx_hal_i2s.c ****         (++) HAL_I2S_Receive_DMA()
 330:Drivers/STM32F3xx_HAL_Driver/Src/stm32f3xx_hal_i2s.c **** 
 331:Drivers/STM32F3xx_HAL_Driver/Src/stm32f3xx_hal_i2s.c ****     (#) A set of Transfer Complete Callbacks are provided in non Blocking mode:
 332:Drivers/STM32F3xx_HAL_Driver/Src/stm32f3xx_hal_i2s.c ****         (++) HAL_I2S_TxCpltCallback()
 333:Drivers/STM32F3xx_HAL_Driver/Src/stm32f3xx_hal_i2s.c ****         (++) HAL_I2S_RxCpltCallback()
 334:Drivers/STM32F3xx_HAL_Driver/Src/stm32f3xx_hal_i2s.c ****         (++) HAL_I2S_ErrorCallback()
 335:Drivers/STM32F3xx_HAL_Driver/Src/stm32f3xx_hal_i2s.c **** 
 336:Drivers/STM32F3xx_HAL_Driver/Src/stm32f3xx_hal_i2s.c **** @endverbatim
 337:Drivers/STM32F3xx_HAL_Driver/Src/stm32f3xx_hal_i2s.c ****   * @{
 338:Drivers/STM32F3xx_HAL_Driver/Src/stm32f3xx_hal_i2s.c ****   */
 339:Drivers/STM32F3xx_HAL_Driver/Src/stm32f3xx_hal_i2s.c **** 
 340:Drivers/STM32F3xx_HAL_Driver/Src/stm32f3xx_hal_i2s.c **** /**
 341:Drivers/STM32F3xx_HAL_Driver/Src/stm32f3xx_hal_i2s.c ****   * @brief Transmit an amount of data in blocking mode
 342:Drivers/STM32F3xx_HAL_Driver/Src/stm32f3xx_hal_i2s.c ****   * @param  hi2s: pointer to a I2S_HandleTypeDef structure that contains
 343:Drivers/STM32F3xx_HAL_Driver/Src/stm32f3xx_hal_i2s.c ****   *         the configuration information for I2S module
 344:Drivers/STM32F3xx_HAL_Driver/Src/stm32f3xx_hal_i2s.c ****   * @param pData a 16-bit pointer to data buffer.
 345:Drivers/STM32F3xx_HAL_Driver/Src/stm32f3xx_hal_i2s.c ****   * @param Size number of data sample to be sent:
 346:Drivers/STM32F3xx_HAL_Driver/Src/stm32f3xx_hal_i2s.c ****   * @note When a 16-bit data frame or a 16-bit data frame extended is selected during the I2S
 347:Drivers/STM32F3xx_HAL_Driver/Src/stm32f3xx_hal_i2s.c ****   *       configuration phase, the Size parameter means the number of 16-bit data length 
 348:Drivers/STM32F3xx_HAL_Driver/Src/stm32f3xx_hal_i2s.c ****   *       in the transaction and when a 24-bit data frame or a 32-bit data frame is selected 
 349:Drivers/STM32F3xx_HAL_Driver/Src/stm32f3xx_hal_i2s.c ****   *       the Size parameter means the number of 16-bit data length. 
 350:Drivers/STM32F3xx_HAL_Driver/Src/stm32f3xx_hal_i2s.c ****   * @param  Timeout Timeout duration
 351:Drivers/STM32F3xx_HAL_Driver/Src/stm32f3xx_hal_i2s.c ****   * @note The I2S is kept enabled at the end of transaction to avoid the clock de-synchronization 
 352:Drivers/STM32F3xx_HAL_Driver/Src/stm32f3xx_hal_i2s.c ****   *       between Master and Slave(example: audio streaming).
 353:Drivers/STM32F3xx_HAL_Driver/Src/stm32f3xx_hal_i2s.c ****   * @retval HAL status
 354:Drivers/STM32F3xx_HAL_Driver/Src/stm32f3xx_hal_i2s.c ****   */
 355:Drivers/STM32F3xx_HAL_Driver/Src/stm32f3xx_hal_i2s.c **** HAL_StatusTypeDef HAL_I2S_Transmit(I2S_HandleTypeDef *hi2s, uint16_t *pData, uint16_t Size, uint32_
 356:Drivers/STM32F3xx_HAL_Driver/Src/stm32f3xx_hal_i2s.c **** {
 357:Drivers/STM32F3xx_HAL_Driver/Src/stm32f3xx_hal_i2s.c ****   if((pData == NULL ) || (Size == 0U)) 
 358:Drivers/STM32F3xx_HAL_Driver/Src/stm32f3xx_hal_i2s.c ****   {
 359:Drivers/STM32F3xx_HAL_Driver/Src/stm32f3xx_hal_i2s.c ****     return  HAL_ERROR;
 360:Drivers/STM32F3xx_HAL_Driver/Src/stm32f3xx_hal_i2s.c ****   }
 361:Drivers/STM32F3xx_HAL_Driver/Src/stm32f3xx_hal_i2s.c ****   
 362:Drivers/STM32F3xx_HAL_Driver/Src/stm32f3xx_hal_i2s.c ****   if(hi2s->State == HAL_I2S_STATE_READY)
 363:Drivers/STM32F3xx_HAL_Driver/Src/stm32f3xx_hal_i2s.c ****   { 
 364:Drivers/STM32F3xx_HAL_Driver/Src/stm32f3xx_hal_i2s.c ****     if(((hi2s->Instance->I2SCFGR & (SPI_I2SCFGR_DATLEN | SPI_I2SCFGR_CHLEN)) == I2S_DATAFORMAT_24B)
 365:Drivers/STM32F3xx_HAL_Driver/Src/stm32f3xx_hal_i2s.c ****        ((hi2s->Instance->I2SCFGR & (SPI_I2SCFGR_DATLEN | SPI_I2SCFGR_CHLEN)) == I2S_DATAFORMAT_32B)
 366:Drivers/STM32F3xx_HAL_Driver/Src/stm32f3xx_hal_i2s.c ****     {
 367:Drivers/STM32F3xx_HAL_Driver/Src/stm32f3xx_hal_i2s.c ****       hi2s->TxXferSize = (Size << 1U);
 368:Drivers/STM32F3xx_HAL_Driver/Src/stm32f3xx_hal_i2s.c ****       hi2s->TxXferCount = (Size << 1U);
 369:Drivers/STM32F3xx_HAL_Driver/Src/stm32f3xx_hal_i2s.c ****     }
 370:Drivers/STM32F3xx_HAL_Driver/Src/stm32f3xx_hal_i2s.c ****     else
 371:Drivers/STM32F3xx_HAL_Driver/Src/stm32f3xx_hal_i2s.c ****     {
 372:Drivers/STM32F3xx_HAL_Driver/Src/stm32f3xx_hal_i2s.c ****       hi2s->TxXferSize = Size;
ARM GAS  C:\Users\SHINRA~1\AppData\Local\Temp\ccBXzGic.s 			page 8


 373:Drivers/STM32F3xx_HAL_Driver/Src/stm32f3xx_hal_i2s.c ****       hi2s->TxXferCount = Size;
 374:Drivers/STM32F3xx_HAL_Driver/Src/stm32f3xx_hal_i2s.c ****     }
 375:Drivers/STM32F3xx_HAL_Driver/Src/stm32f3xx_hal_i2s.c ****     
 376:Drivers/STM32F3xx_HAL_Driver/Src/stm32f3xx_hal_i2s.c ****     /* Process Locked */
 377:Drivers/STM32F3xx_HAL_Driver/Src/stm32f3xx_hal_i2s.c ****     __HAL_LOCK(hi2s);
 378:Drivers/STM32F3xx_HAL_Driver/Src/stm32f3xx_hal_i2s.c ****     
 379:Drivers/STM32F3xx_HAL_Driver/Src/stm32f3xx_hal_i2s.c ****     hi2s->ErrorCode = HAL_I2S_ERROR_NONE;
 380:Drivers/STM32F3xx_HAL_Driver/Src/stm32f3xx_hal_i2s.c ****     hi2s->State = HAL_I2S_STATE_BUSY_TX;
 381:Drivers/STM32F3xx_HAL_Driver/Src/stm32f3xx_hal_i2s.c ****    
 382:Drivers/STM32F3xx_HAL_Driver/Src/stm32f3xx_hal_i2s.c ****     /* Check if the I2S is already enabled */ 
 383:Drivers/STM32F3xx_HAL_Driver/Src/stm32f3xx_hal_i2s.c ****     if((hi2s->Instance->I2SCFGR &SPI_I2SCFGR_I2SE) != SPI_I2SCFGR_I2SE)
 384:Drivers/STM32F3xx_HAL_Driver/Src/stm32f3xx_hal_i2s.c ****     {
 385:Drivers/STM32F3xx_HAL_Driver/Src/stm32f3xx_hal_i2s.c ****       /* Enable I2S peripheral */
 386:Drivers/STM32F3xx_HAL_Driver/Src/stm32f3xx_hal_i2s.c ****       __HAL_I2S_ENABLE(hi2s);
 387:Drivers/STM32F3xx_HAL_Driver/Src/stm32f3xx_hal_i2s.c ****     }
 388:Drivers/STM32F3xx_HAL_Driver/Src/stm32f3xx_hal_i2s.c ****     
 389:Drivers/STM32F3xx_HAL_Driver/Src/stm32f3xx_hal_i2s.c ****     while(hi2s->TxXferCount > 0U)
 390:Drivers/STM32F3xx_HAL_Driver/Src/stm32f3xx_hal_i2s.c ****     {
 391:Drivers/STM32F3xx_HAL_Driver/Src/stm32f3xx_hal_i2s.c ****       hi2s->Instance->DR = (*pData++);
 392:Drivers/STM32F3xx_HAL_Driver/Src/stm32f3xx_hal_i2s.c ****       hi2s->TxXferCount--;   
 393:Drivers/STM32F3xx_HAL_Driver/Src/stm32f3xx_hal_i2s.c ****       /* Wait until TXE flag is set */
 394:Drivers/STM32F3xx_HAL_Driver/Src/stm32f3xx_hal_i2s.c ****       if (I2S_WaitFlagStateUntilTimeout(hi2s, I2S_FLAG_TXE, RESET, Timeout) != HAL_OK)
 395:Drivers/STM32F3xx_HAL_Driver/Src/stm32f3xx_hal_i2s.c ****       {
 396:Drivers/STM32F3xx_HAL_Driver/Src/stm32f3xx_hal_i2s.c ****         /* Set the error code and execute error callback*/
 397:Drivers/STM32F3xx_HAL_Driver/Src/stm32f3xx_hal_i2s.c ****         hi2s->ErrorCode |= HAL_I2S_ERROR_TIMEOUT;
 398:Drivers/STM32F3xx_HAL_Driver/Src/stm32f3xx_hal_i2s.c ****         HAL_I2S_ErrorCallback(hi2s);
 399:Drivers/STM32F3xx_HAL_Driver/Src/stm32f3xx_hal_i2s.c ****         return HAL_TIMEOUT;
 400:Drivers/STM32F3xx_HAL_Driver/Src/stm32f3xx_hal_i2s.c ****       }
 401:Drivers/STM32F3xx_HAL_Driver/Src/stm32f3xx_hal_i2s.c **** 
 402:Drivers/STM32F3xx_HAL_Driver/Src/stm32f3xx_hal_i2s.c ****       /* Check if an underrun occurs */
 403:Drivers/STM32F3xx_HAL_Driver/Src/stm32f3xx_hal_i2s.c ****       if(__HAL_I2S_GET_FLAG(hi2s, I2S_FLAG_UDR) == SET) 
 404:Drivers/STM32F3xx_HAL_Driver/Src/stm32f3xx_hal_i2s.c ****       {
 405:Drivers/STM32F3xx_HAL_Driver/Src/stm32f3xx_hal_i2s.c ****         /* Set the I2S State ready */
 406:Drivers/STM32F3xx_HAL_Driver/Src/stm32f3xx_hal_i2s.c ****         hi2s->State = HAL_I2S_STATE_READY; 
 407:Drivers/STM32F3xx_HAL_Driver/Src/stm32f3xx_hal_i2s.c **** 
 408:Drivers/STM32F3xx_HAL_Driver/Src/stm32f3xx_hal_i2s.c ****         /* Process Unlocked */
 409:Drivers/STM32F3xx_HAL_Driver/Src/stm32f3xx_hal_i2s.c ****         __HAL_UNLOCK(hi2s);
 410:Drivers/STM32F3xx_HAL_Driver/Src/stm32f3xx_hal_i2s.c **** 
 411:Drivers/STM32F3xx_HAL_Driver/Src/stm32f3xx_hal_i2s.c ****         /* Set the error code and execute error callback*/
 412:Drivers/STM32F3xx_HAL_Driver/Src/stm32f3xx_hal_i2s.c ****         hi2s->ErrorCode |= HAL_I2S_ERROR_UDR;
 413:Drivers/STM32F3xx_HAL_Driver/Src/stm32f3xx_hal_i2s.c ****         HAL_I2S_ErrorCallback(hi2s);
 414:Drivers/STM32F3xx_HAL_Driver/Src/stm32f3xx_hal_i2s.c **** 
 415:Drivers/STM32F3xx_HAL_Driver/Src/stm32f3xx_hal_i2s.c ****         return HAL_ERROR;
 416:Drivers/STM32F3xx_HAL_Driver/Src/stm32f3xx_hal_i2s.c ****       }
 417:Drivers/STM32F3xx_HAL_Driver/Src/stm32f3xx_hal_i2s.c ****     }
 418:Drivers/STM32F3xx_HAL_Driver/Src/stm32f3xx_hal_i2s.c ****     hi2s->State = HAL_I2S_STATE_READY; 
 419:Drivers/STM32F3xx_HAL_Driver/Src/stm32f3xx_hal_i2s.c ****     
 420:Drivers/STM32F3xx_HAL_Driver/Src/stm32f3xx_hal_i2s.c ****     /* Process Unlocked */
 421:Drivers/STM32F3xx_HAL_Driver/Src/stm32f3xx_hal_i2s.c ****     __HAL_UNLOCK(hi2s);
 422:Drivers/STM32F3xx_HAL_Driver/Src/stm32f3xx_hal_i2s.c ****     
 423:Drivers/STM32F3xx_HAL_Driver/Src/stm32f3xx_hal_i2s.c ****     return HAL_OK;
 424:Drivers/STM32F3xx_HAL_Driver/Src/stm32f3xx_hal_i2s.c ****   }
 425:Drivers/STM32F3xx_HAL_Driver/Src/stm32f3xx_hal_i2s.c ****   else
 426:Drivers/STM32F3xx_HAL_Driver/Src/stm32f3xx_hal_i2s.c ****   {
 427:Drivers/STM32F3xx_HAL_Driver/Src/stm32f3xx_hal_i2s.c ****     return HAL_BUSY;
 428:Drivers/STM32F3xx_HAL_Driver/Src/stm32f3xx_hal_i2s.c ****   }
 429:Drivers/STM32F3xx_HAL_Driver/Src/stm32f3xx_hal_i2s.c **** }
ARM GAS  C:\Users\SHINRA~1\AppData\Local\Temp\ccBXzGic.s 			page 9


 430:Drivers/STM32F3xx_HAL_Driver/Src/stm32f3xx_hal_i2s.c **** 
 431:Drivers/STM32F3xx_HAL_Driver/Src/stm32f3xx_hal_i2s.c **** /**
 432:Drivers/STM32F3xx_HAL_Driver/Src/stm32f3xx_hal_i2s.c ****   * @brief Receive an amount of data in blocking mode 
 433:Drivers/STM32F3xx_HAL_Driver/Src/stm32f3xx_hal_i2s.c ****   * @param  hi2s: pointer to a I2S_HandleTypeDef structure that contains
 434:Drivers/STM32F3xx_HAL_Driver/Src/stm32f3xx_hal_i2s.c ****   *         the configuration information for I2S module
 435:Drivers/STM32F3xx_HAL_Driver/Src/stm32f3xx_hal_i2s.c ****   * @param pData a 16-bit pointer to data buffer.
 436:Drivers/STM32F3xx_HAL_Driver/Src/stm32f3xx_hal_i2s.c ****   * @param Size number of data sample to be sent:
 437:Drivers/STM32F3xx_HAL_Driver/Src/stm32f3xx_hal_i2s.c ****   * @note When a 16-bit data frame or a 16-bit data frame extended is selected during the I2S
 438:Drivers/STM32F3xx_HAL_Driver/Src/stm32f3xx_hal_i2s.c ****   *       configuration phase, the Size parameter means the number of 16-bit data length 
 439:Drivers/STM32F3xx_HAL_Driver/Src/stm32f3xx_hal_i2s.c ****   *       in the transaction and when a 24-bit data frame or a 32-bit data frame is selected 
 440:Drivers/STM32F3xx_HAL_Driver/Src/stm32f3xx_hal_i2s.c ****   *       the Size parameter means the number of 16-bit data length. 
 441:Drivers/STM32F3xx_HAL_Driver/Src/stm32f3xx_hal_i2s.c ****   * @param Timeout Timeout duration
 442:Drivers/STM32F3xx_HAL_Driver/Src/stm32f3xx_hal_i2s.c ****   * @note The I2S is kept enabled at the end of transaction to avoid the clock de-synchronization 
 443:Drivers/STM32F3xx_HAL_Driver/Src/stm32f3xx_hal_i2s.c ****   *       between Master and Slave(example: audio streaming).
 444:Drivers/STM32F3xx_HAL_Driver/Src/stm32f3xx_hal_i2s.c ****   * @note In I2S Master Receiver mode, just after enabling the peripheral the clock will be generat
 445:Drivers/STM32F3xx_HAL_Driver/Src/stm32f3xx_hal_i2s.c ****   *       in continouse way and as the I2S is not disabled at the end of the I2S transaction.
 446:Drivers/STM32F3xx_HAL_Driver/Src/stm32f3xx_hal_i2s.c ****   * @retval HAL status
 447:Drivers/STM32F3xx_HAL_Driver/Src/stm32f3xx_hal_i2s.c ****   */
 448:Drivers/STM32F3xx_HAL_Driver/Src/stm32f3xx_hal_i2s.c **** HAL_StatusTypeDef HAL_I2S_Receive(I2S_HandleTypeDef *hi2s, uint16_t *pData, uint16_t Size, uint32_t
 449:Drivers/STM32F3xx_HAL_Driver/Src/stm32f3xx_hal_i2s.c **** {
 450:Drivers/STM32F3xx_HAL_Driver/Src/stm32f3xx_hal_i2s.c ****   if((pData == NULL ) || (Size == 0U)) 
 451:Drivers/STM32F3xx_HAL_Driver/Src/stm32f3xx_hal_i2s.c ****   {
 452:Drivers/STM32F3xx_HAL_Driver/Src/stm32f3xx_hal_i2s.c ****     return  HAL_ERROR;
 453:Drivers/STM32F3xx_HAL_Driver/Src/stm32f3xx_hal_i2s.c ****   }
 454:Drivers/STM32F3xx_HAL_Driver/Src/stm32f3xx_hal_i2s.c ****   
 455:Drivers/STM32F3xx_HAL_Driver/Src/stm32f3xx_hal_i2s.c ****   if(hi2s->State == HAL_I2S_STATE_READY)
 456:Drivers/STM32F3xx_HAL_Driver/Src/stm32f3xx_hal_i2s.c ****   { 
 457:Drivers/STM32F3xx_HAL_Driver/Src/stm32f3xx_hal_i2s.c ****     if(((hi2s->Instance->I2SCFGR & (SPI_I2SCFGR_DATLEN | SPI_I2SCFGR_CHLEN)) == I2S_DATAFORMAT_24B)
 458:Drivers/STM32F3xx_HAL_Driver/Src/stm32f3xx_hal_i2s.c ****        ((hi2s->Instance->I2SCFGR & (SPI_I2SCFGR_DATLEN | SPI_I2SCFGR_CHLEN)) == I2S_DATAFORMAT_32B)
 459:Drivers/STM32F3xx_HAL_Driver/Src/stm32f3xx_hal_i2s.c ****     {
 460:Drivers/STM32F3xx_HAL_Driver/Src/stm32f3xx_hal_i2s.c ****       hi2s->RxXferSize = (Size << 1U);
 461:Drivers/STM32F3xx_HAL_Driver/Src/stm32f3xx_hal_i2s.c ****       hi2s->RxXferCount = (Size << 1U);
 462:Drivers/STM32F3xx_HAL_Driver/Src/stm32f3xx_hal_i2s.c ****     }
 463:Drivers/STM32F3xx_HAL_Driver/Src/stm32f3xx_hal_i2s.c ****     else
 464:Drivers/STM32F3xx_HAL_Driver/Src/stm32f3xx_hal_i2s.c ****     {
 465:Drivers/STM32F3xx_HAL_Driver/Src/stm32f3xx_hal_i2s.c ****       hi2s->RxXferSize = Size;
 466:Drivers/STM32F3xx_HAL_Driver/Src/stm32f3xx_hal_i2s.c ****       hi2s->RxXferCount = Size;
 467:Drivers/STM32F3xx_HAL_Driver/Src/stm32f3xx_hal_i2s.c ****     }
 468:Drivers/STM32F3xx_HAL_Driver/Src/stm32f3xx_hal_i2s.c ****     /* Process Locked */
 469:Drivers/STM32F3xx_HAL_Driver/Src/stm32f3xx_hal_i2s.c ****     __HAL_LOCK(hi2s);
 470:Drivers/STM32F3xx_HAL_Driver/Src/stm32f3xx_hal_i2s.c **** 
 471:Drivers/STM32F3xx_HAL_Driver/Src/stm32f3xx_hal_i2s.c ****     hi2s->ErrorCode = HAL_I2S_ERROR_NONE;
 472:Drivers/STM32F3xx_HAL_Driver/Src/stm32f3xx_hal_i2s.c ****     hi2s->State = HAL_I2S_STATE_BUSY_RX;
 473:Drivers/STM32F3xx_HAL_Driver/Src/stm32f3xx_hal_i2s.c **** 
 474:Drivers/STM32F3xx_HAL_Driver/Src/stm32f3xx_hal_i2s.c ****     /* Check if the I2S is already enabled */ 
 475:Drivers/STM32F3xx_HAL_Driver/Src/stm32f3xx_hal_i2s.c ****     if((hi2s->Instance->I2SCFGR & SPI_I2SCFGR_I2SE) != SPI_I2SCFGR_I2SE)
 476:Drivers/STM32F3xx_HAL_Driver/Src/stm32f3xx_hal_i2s.c ****     {
 477:Drivers/STM32F3xx_HAL_Driver/Src/stm32f3xx_hal_i2s.c ****       /* Enable I2S peripheral */
 478:Drivers/STM32F3xx_HAL_Driver/Src/stm32f3xx_hal_i2s.c ****       __HAL_I2S_ENABLE(hi2s);
 479:Drivers/STM32F3xx_HAL_Driver/Src/stm32f3xx_hal_i2s.c ****     }
 480:Drivers/STM32F3xx_HAL_Driver/Src/stm32f3xx_hal_i2s.c **** 
 481:Drivers/STM32F3xx_HAL_Driver/Src/stm32f3xx_hal_i2s.c ****     /* Check if Master Receiver mode is selected */
 482:Drivers/STM32F3xx_HAL_Driver/Src/stm32f3xx_hal_i2s.c ****     if((hi2s->Instance->I2SCFGR & SPI_I2SCFGR_I2SCFG) == I2S_MODE_MASTER_RX)
 483:Drivers/STM32F3xx_HAL_Driver/Src/stm32f3xx_hal_i2s.c ****     {
 484:Drivers/STM32F3xx_HAL_Driver/Src/stm32f3xx_hal_i2s.c ****       /* Clear the Overrun Flag by a read operation on the SPI_DR register followed by a read
 485:Drivers/STM32F3xx_HAL_Driver/Src/stm32f3xx_hal_i2s.c ****       access to the SPI_SR register. */ 
 486:Drivers/STM32F3xx_HAL_Driver/Src/stm32f3xx_hal_i2s.c ****       __HAL_I2S_CLEAR_OVRFLAG(hi2s);
ARM GAS  C:\Users\SHINRA~1\AppData\Local\Temp\ccBXzGic.s 			page 10


 487:Drivers/STM32F3xx_HAL_Driver/Src/stm32f3xx_hal_i2s.c ****     }
 488:Drivers/STM32F3xx_HAL_Driver/Src/stm32f3xx_hal_i2s.c **** 
 489:Drivers/STM32F3xx_HAL_Driver/Src/stm32f3xx_hal_i2s.c ****     /* Receive data */
 490:Drivers/STM32F3xx_HAL_Driver/Src/stm32f3xx_hal_i2s.c ****     while(hi2s->RxXferCount > 0U)
 491:Drivers/STM32F3xx_HAL_Driver/Src/stm32f3xx_hal_i2s.c ****     {
 492:Drivers/STM32F3xx_HAL_Driver/Src/stm32f3xx_hal_i2s.c ****       /* Wait until RXNE flag is set */
 493:Drivers/STM32F3xx_HAL_Driver/Src/stm32f3xx_hal_i2s.c ****       if (I2S_WaitFlagStateUntilTimeout(hi2s, I2S_FLAG_RXNE, RESET, Timeout) != HAL_OK)
 494:Drivers/STM32F3xx_HAL_Driver/Src/stm32f3xx_hal_i2s.c ****       {
 495:Drivers/STM32F3xx_HAL_Driver/Src/stm32f3xx_hal_i2s.c ****         /* Set the error code and execute error callback*/
 496:Drivers/STM32F3xx_HAL_Driver/Src/stm32f3xx_hal_i2s.c ****         hi2s->ErrorCode |= HAL_I2S_ERROR_TIMEOUT;
 497:Drivers/STM32F3xx_HAL_Driver/Src/stm32f3xx_hal_i2s.c ****         HAL_I2S_ErrorCallback(hi2s);
 498:Drivers/STM32F3xx_HAL_Driver/Src/stm32f3xx_hal_i2s.c ****         return HAL_TIMEOUT;
 499:Drivers/STM32F3xx_HAL_Driver/Src/stm32f3xx_hal_i2s.c ****       }
 500:Drivers/STM32F3xx_HAL_Driver/Src/stm32f3xx_hal_i2s.c ****       
 501:Drivers/STM32F3xx_HAL_Driver/Src/stm32f3xx_hal_i2s.c ****       /* Check if an overrun occurs */
 502:Drivers/STM32F3xx_HAL_Driver/Src/stm32f3xx_hal_i2s.c ****       if(__HAL_I2S_GET_FLAG(hi2s, I2S_FLAG_OVR) == SET) 
 503:Drivers/STM32F3xx_HAL_Driver/Src/stm32f3xx_hal_i2s.c ****       {
 504:Drivers/STM32F3xx_HAL_Driver/Src/stm32f3xx_hal_i2s.c ****         /* Set the I2S State ready */
 505:Drivers/STM32F3xx_HAL_Driver/Src/stm32f3xx_hal_i2s.c ****         hi2s->State = HAL_I2S_STATE_READY; 
 506:Drivers/STM32F3xx_HAL_Driver/Src/stm32f3xx_hal_i2s.c **** 
 507:Drivers/STM32F3xx_HAL_Driver/Src/stm32f3xx_hal_i2s.c ****         /* Process Unlocked */
 508:Drivers/STM32F3xx_HAL_Driver/Src/stm32f3xx_hal_i2s.c ****         __HAL_UNLOCK(hi2s);
 509:Drivers/STM32F3xx_HAL_Driver/Src/stm32f3xx_hal_i2s.c **** 
 510:Drivers/STM32F3xx_HAL_Driver/Src/stm32f3xx_hal_i2s.c ****         /* Set the error code and execute error callback*/
 511:Drivers/STM32F3xx_HAL_Driver/Src/stm32f3xx_hal_i2s.c ****         hi2s->ErrorCode |= HAL_I2S_ERROR_OVR;
 512:Drivers/STM32F3xx_HAL_Driver/Src/stm32f3xx_hal_i2s.c ****         HAL_I2S_ErrorCallback(hi2s);
 513:Drivers/STM32F3xx_HAL_Driver/Src/stm32f3xx_hal_i2s.c **** 
 514:Drivers/STM32F3xx_HAL_Driver/Src/stm32f3xx_hal_i2s.c ****         return HAL_ERROR;
 515:Drivers/STM32F3xx_HAL_Driver/Src/stm32f3xx_hal_i2s.c ****       }
 516:Drivers/STM32F3xx_HAL_Driver/Src/stm32f3xx_hal_i2s.c **** 
 517:Drivers/STM32F3xx_HAL_Driver/Src/stm32f3xx_hal_i2s.c ****       (*pData++) = hi2s->Instance->DR;
 518:Drivers/STM32F3xx_HAL_Driver/Src/stm32f3xx_hal_i2s.c ****       hi2s->RxXferCount--;
 519:Drivers/STM32F3xx_HAL_Driver/Src/stm32f3xx_hal_i2s.c ****     }
 520:Drivers/STM32F3xx_HAL_Driver/Src/stm32f3xx_hal_i2s.c **** 
 521:Drivers/STM32F3xx_HAL_Driver/Src/stm32f3xx_hal_i2s.c ****     hi2s->State = HAL_I2S_STATE_READY; 
 522:Drivers/STM32F3xx_HAL_Driver/Src/stm32f3xx_hal_i2s.c ****     
 523:Drivers/STM32F3xx_HAL_Driver/Src/stm32f3xx_hal_i2s.c ****     /* Process Unlocked */
 524:Drivers/STM32F3xx_HAL_Driver/Src/stm32f3xx_hal_i2s.c ****     __HAL_UNLOCK(hi2s);
 525:Drivers/STM32F3xx_HAL_Driver/Src/stm32f3xx_hal_i2s.c ****     
 526:Drivers/STM32F3xx_HAL_Driver/Src/stm32f3xx_hal_i2s.c ****     return HAL_OK;
 527:Drivers/STM32F3xx_HAL_Driver/Src/stm32f3xx_hal_i2s.c ****   }
 528:Drivers/STM32F3xx_HAL_Driver/Src/stm32f3xx_hal_i2s.c ****   else
 529:Drivers/STM32F3xx_HAL_Driver/Src/stm32f3xx_hal_i2s.c ****   {
 530:Drivers/STM32F3xx_HAL_Driver/Src/stm32f3xx_hal_i2s.c ****     return HAL_BUSY;
 531:Drivers/STM32F3xx_HAL_Driver/Src/stm32f3xx_hal_i2s.c ****   }
 532:Drivers/STM32F3xx_HAL_Driver/Src/stm32f3xx_hal_i2s.c **** }
 533:Drivers/STM32F3xx_HAL_Driver/Src/stm32f3xx_hal_i2s.c **** 
 534:Drivers/STM32F3xx_HAL_Driver/Src/stm32f3xx_hal_i2s.c **** /**
 535:Drivers/STM32F3xx_HAL_Driver/Src/stm32f3xx_hal_i2s.c ****   * @brief Transmit an amount of data in non-blocking mode with Interrupt
 536:Drivers/STM32F3xx_HAL_Driver/Src/stm32f3xx_hal_i2s.c ****   * @param  hi2s: pointer to a I2S_HandleTypeDef structure that contains
 537:Drivers/STM32F3xx_HAL_Driver/Src/stm32f3xx_hal_i2s.c ****   *         the configuration information for I2S module
 538:Drivers/STM32F3xx_HAL_Driver/Src/stm32f3xx_hal_i2s.c ****   * @param pData a 16-bit pointer to data buffer.
 539:Drivers/STM32F3xx_HAL_Driver/Src/stm32f3xx_hal_i2s.c ****   * @param Size number of data sample to be sent:
 540:Drivers/STM32F3xx_HAL_Driver/Src/stm32f3xx_hal_i2s.c ****   * @note When a 16-bit data frame or a 16-bit data frame extended is selected during the I2S
 541:Drivers/STM32F3xx_HAL_Driver/Src/stm32f3xx_hal_i2s.c ****   *       configuration phase, the Size parameter means the number of 16-bit data length 
 542:Drivers/STM32F3xx_HAL_Driver/Src/stm32f3xx_hal_i2s.c ****   *       in the transaction and when a 24-bit data frame or a 32-bit data frame is selected 
 543:Drivers/STM32F3xx_HAL_Driver/Src/stm32f3xx_hal_i2s.c ****   *       the Size parameter means the number of 16-bit data length. 
ARM GAS  C:\Users\SHINRA~1\AppData\Local\Temp\ccBXzGic.s 			page 11


 544:Drivers/STM32F3xx_HAL_Driver/Src/stm32f3xx_hal_i2s.c ****   * @note The I2S is kept enabled at the end of transaction to avoid the clock de-synchronization 
 545:Drivers/STM32F3xx_HAL_Driver/Src/stm32f3xx_hal_i2s.c ****   *       between Master and Slave(example: audio streaming).
 546:Drivers/STM32F3xx_HAL_Driver/Src/stm32f3xx_hal_i2s.c ****   * @retval HAL status
 547:Drivers/STM32F3xx_HAL_Driver/Src/stm32f3xx_hal_i2s.c ****   */
 548:Drivers/STM32F3xx_HAL_Driver/Src/stm32f3xx_hal_i2s.c **** HAL_StatusTypeDef HAL_I2S_Transmit_IT(I2S_HandleTypeDef *hi2s, uint16_t *pData, uint16_t Size)
 549:Drivers/STM32F3xx_HAL_Driver/Src/stm32f3xx_hal_i2s.c **** {
 550:Drivers/STM32F3xx_HAL_Driver/Src/stm32f3xx_hal_i2s.c ****   if(hi2s->State == HAL_I2S_STATE_READY)
 551:Drivers/STM32F3xx_HAL_Driver/Src/stm32f3xx_hal_i2s.c ****   {
 552:Drivers/STM32F3xx_HAL_Driver/Src/stm32f3xx_hal_i2s.c ****     if((pData == NULL) || (Size == 0U)) 
 553:Drivers/STM32F3xx_HAL_Driver/Src/stm32f3xx_hal_i2s.c ****     {
 554:Drivers/STM32F3xx_HAL_Driver/Src/stm32f3xx_hal_i2s.c ****       return  HAL_ERROR;
 555:Drivers/STM32F3xx_HAL_Driver/Src/stm32f3xx_hal_i2s.c ****     }
 556:Drivers/STM32F3xx_HAL_Driver/Src/stm32f3xx_hal_i2s.c **** 
 557:Drivers/STM32F3xx_HAL_Driver/Src/stm32f3xx_hal_i2s.c ****     hi2s->pTxBuffPtr = pData;
 558:Drivers/STM32F3xx_HAL_Driver/Src/stm32f3xx_hal_i2s.c ****     if(((hi2s->Instance->I2SCFGR & (SPI_I2SCFGR_DATLEN | SPI_I2SCFGR_CHLEN)) == I2S_DATAFORMAT_24B)
 559:Drivers/STM32F3xx_HAL_Driver/Src/stm32f3xx_hal_i2s.c ****       ((hi2s->Instance->I2SCFGR & (SPI_I2SCFGR_DATLEN | SPI_I2SCFGR_CHLEN)) == I2S_DATAFORMAT_32B))
 560:Drivers/STM32F3xx_HAL_Driver/Src/stm32f3xx_hal_i2s.c ****     {
 561:Drivers/STM32F3xx_HAL_Driver/Src/stm32f3xx_hal_i2s.c ****       hi2s->TxXferSize = (Size << 1U);
 562:Drivers/STM32F3xx_HAL_Driver/Src/stm32f3xx_hal_i2s.c ****       hi2s->TxXferCount = (Size << 1U);
 563:Drivers/STM32F3xx_HAL_Driver/Src/stm32f3xx_hal_i2s.c ****     }
 564:Drivers/STM32F3xx_HAL_Driver/Src/stm32f3xx_hal_i2s.c ****     else
 565:Drivers/STM32F3xx_HAL_Driver/Src/stm32f3xx_hal_i2s.c ****     {
 566:Drivers/STM32F3xx_HAL_Driver/Src/stm32f3xx_hal_i2s.c ****       hi2s->TxXferSize = Size;
 567:Drivers/STM32F3xx_HAL_Driver/Src/stm32f3xx_hal_i2s.c ****       hi2s->TxXferCount = Size;
 568:Drivers/STM32F3xx_HAL_Driver/Src/stm32f3xx_hal_i2s.c ****     }
 569:Drivers/STM32F3xx_HAL_Driver/Src/stm32f3xx_hal_i2s.c **** 
 570:Drivers/STM32F3xx_HAL_Driver/Src/stm32f3xx_hal_i2s.c ****     /* Process Locked */
 571:Drivers/STM32F3xx_HAL_Driver/Src/stm32f3xx_hal_i2s.c ****     __HAL_LOCK(hi2s);
 572:Drivers/STM32F3xx_HAL_Driver/Src/stm32f3xx_hal_i2s.c **** 
 573:Drivers/STM32F3xx_HAL_Driver/Src/stm32f3xx_hal_i2s.c ****     hi2s->ErrorCode = HAL_I2S_ERROR_NONE;
 574:Drivers/STM32F3xx_HAL_Driver/Src/stm32f3xx_hal_i2s.c ****     hi2s->State = HAL_I2S_STATE_BUSY_TX;
 575:Drivers/STM32F3xx_HAL_Driver/Src/stm32f3xx_hal_i2s.c **** 
 576:Drivers/STM32F3xx_HAL_Driver/Src/stm32f3xx_hal_i2s.c ****     /* Enable TXE and ERR interrupt */
 577:Drivers/STM32F3xx_HAL_Driver/Src/stm32f3xx_hal_i2s.c ****     __HAL_I2S_ENABLE_IT(hi2s, (I2S_IT_TXE | I2S_IT_ERR));
 578:Drivers/STM32F3xx_HAL_Driver/Src/stm32f3xx_hal_i2s.c **** 
 579:Drivers/STM32F3xx_HAL_Driver/Src/stm32f3xx_hal_i2s.c ****     /* Check if the I2S is already enabled */ 
 580:Drivers/STM32F3xx_HAL_Driver/Src/stm32f3xx_hal_i2s.c ****     if((hi2s->Instance->I2SCFGR &SPI_I2SCFGR_I2SE) != SPI_I2SCFGR_I2SE)
 581:Drivers/STM32F3xx_HAL_Driver/Src/stm32f3xx_hal_i2s.c ****     {
 582:Drivers/STM32F3xx_HAL_Driver/Src/stm32f3xx_hal_i2s.c ****       /* Enable I2S peripheral */
 583:Drivers/STM32F3xx_HAL_Driver/Src/stm32f3xx_hal_i2s.c ****       __HAL_I2S_ENABLE(hi2s);
 584:Drivers/STM32F3xx_HAL_Driver/Src/stm32f3xx_hal_i2s.c ****     }
 585:Drivers/STM32F3xx_HAL_Driver/Src/stm32f3xx_hal_i2s.c **** 
 586:Drivers/STM32F3xx_HAL_Driver/Src/stm32f3xx_hal_i2s.c ****     /* Process Unlocked */
 587:Drivers/STM32F3xx_HAL_Driver/Src/stm32f3xx_hal_i2s.c ****     __HAL_UNLOCK(hi2s);
 588:Drivers/STM32F3xx_HAL_Driver/Src/stm32f3xx_hal_i2s.c ****     
 589:Drivers/STM32F3xx_HAL_Driver/Src/stm32f3xx_hal_i2s.c ****     return HAL_OK;
 590:Drivers/STM32F3xx_HAL_Driver/Src/stm32f3xx_hal_i2s.c ****   }
 591:Drivers/STM32F3xx_HAL_Driver/Src/stm32f3xx_hal_i2s.c ****   else
 592:Drivers/STM32F3xx_HAL_Driver/Src/stm32f3xx_hal_i2s.c ****   {
 593:Drivers/STM32F3xx_HAL_Driver/Src/stm32f3xx_hal_i2s.c ****     return HAL_BUSY;
 594:Drivers/STM32F3xx_HAL_Driver/Src/stm32f3xx_hal_i2s.c ****   }
 595:Drivers/STM32F3xx_HAL_Driver/Src/stm32f3xx_hal_i2s.c **** }
 596:Drivers/STM32F3xx_HAL_Driver/Src/stm32f3xx_hal_i2s.c **** 
 597:Drivers/STM32F3xx_HAL_Driver/Src/stm32f3xx_hal_i2s.c **** /**
 598:Drivers/STM32F3xx_HAL_Driver/Src/stm32f3xx_hal_i2s.c ****   * @brief Receive an amount of data in non-blocking mode with Interrupt
 599:Drivers/STM32F3xx_HAL_Driver/Src/stm32f3xx_hal_i2s.c ****   * @param  hi2s: pointer to a I2S_HandleTypeDef structure that contains
 600:Drivers/STM32F3xx_HAL_Driver/Src/stm32f3xx_hal_i2s.c ****   *         the configuration information for I2S module
ARM GAS  C:\Users\SHINRA~1\AppData\Local\Temp\ccBXzGic.s 			page 12


 601:Drivers/STM32F3xx_HAL_Driver/Src/stm32f3xx_hal_i2s.c ****   * @param pData a 16-bit pointer to the Receive data buffer.
 602:Drivers/STM32F3xx_HAL_Driver/Src/stm32f3xx_hal_i2s.c ****   * @param Size number of data sample to be sent:
 603:Drivers/STM32F3xx_HAL_Driver/Src/stm32f3xx_hal_i2s.c ****   * @note When a 16-bit data frame or a 16-bit data frame extended is selected during the I2S
 604:Drivers/STM32F3xx_HAL_Driver/Src/stm32f3xx_hal_i2s.c ****   *       configuration phase, the Size parameter means the number of 16-bit data length 
 605:Drivers/STM32F3xx_HAL_Driver/Src/stm32f3xx_hal_i2s.c ****   *       in the transaction and when a 24-bit data frame or a 32-bit data frame is selected 
 606:Drivers/STM32F3xx_HAL_Driver/Src/stm32f3xx_hal_i2s.c ****   *       the Size parameter means the number of 16-bit data length. 
 607:Drivers/STM32F3xx_HAL_Driver/Src/stm32f3xx_hal_i2s.c ****   * @note The I2S is kept enabled at the end of transaction to avoid the clock de-synchronization 
 608:Drivers/STM32F3xx_HAL_Driver/Src/stm32f3xx_hal_i2s.c ****   *       between Master and Slave(example: audio streaming).
 609:Drivers/STM32F3xx_HAL_Driver/Src/stm32f3xx_hal_i2s.c ****   * @note It is recommended to use DMA for the I2S receiver to avoid de-synchronisation 
 610:Drivers/STM32F3xx_HAL_Driver/Src/stm32f3xx_hal_i2s.c ****   * between Master and Slave otherwise the I2S interrupt should be optimized. 
 611:Drivers/STM32F3xx_HAL_Driver/Src/stm32f3xx_hal_i2s.c ****   * @retval HAL status
 612:Drivers/STM32F3xx_HAL_Driver/Src/stm32f3xx_hal_i2s.c ****   */
 613:Drivers/STM32F3xx_HAL_Driver/Src/stm32f3xx_hal_i2s.c **** HAL_StatusTypeDef HAL_I2S_Receive_IT(I2S_HandleTypeDef *hi2s, uint16_t *pData, uint16_t Size)
 614:Drivers/STM32F3xx_HAL_Driver/Src/stm32f3xx_hal_i2s.c **** {
 615:Drivers/STM32F3xx_HAL_Driver/Src/stm32f3xx_hal_i2s.c ****   if(hi2s->State == HAL_I2S_STATE_READY)
 616:Drivers/STM32F3xx_HAL_Driver/Src/stm32f3xx_hal_i2s.c ****   {
 617:Drivers/STM32F3xx_HAL_Driver/Src/stm32f3xx_hal_i2s.c ****     if((pData == NULL) || (Size == 0U)) 
 618:Drivers/STM32F3xx_HAL_Driver/Src/stm32f3xx_hal_i2s.c ****     {
 619:Drivers/STM32F3xx_HAL_Driver/Src/stm32f3xx_hal_i2s.c ****       return  HAL_ERROR;
 620:Drivers/STM32F3xx_HAL_Driver/Src/stm32f3xx_hal_i2s.c ****     }
 621:Drivers/STM32F3xx_HAL_Driver/Src/stm32f3xx_hal_i2s.c **** 
 622:Drivers/STM32F3xx_HAL_Driver/Src/stm32f3xx_hal_i2s.c ****     hi2s->pRxBuffPtr = pData;
 623:Drivers/STM32F3xx_HAL_Driver/Src/stm32f3xx_hal_i2s.c ****     if(((hi2s->Instance->I2SCFGR & (SPI_I2SCFGR_DATLEN | SPI_I2SCFGR_CHLEN)) == I2S_DATAFORMAT_24B)
 624:Drivers/STM32F3xx_HAL_Driver/Src/stm32f3xx_hal_i2s.c ****       ((hi2s->Instance->I2SCFGR & (SPI_I2SCFGR_DATLEN | SPI_I2SCFGR_CHLEN)) == I2S_DATAFORMAT_32B))
 625:Drivers/STM32F3xx_HAL_Driver/Src/stm32f3xx_hal_i2s.c ****     {
 626:Drivers/STM32F3xx_HAL_Driver/Src/stm32f3xx_hal_i2s.c ****       hi2s->RxXferSize = (Size << 1U);
 627:Drivers/STM32F3xx_HAL_Driver/Src/stm32f3xx_hal_i2s.c ****       hi2s->RxXferCount = (Size << 1U);
 628:Drivers/STM32F3xx_HAL_Driver/Src/stm32f3xx_hal_i2s.c ****     }  
 629:Drivers/STM32F3xx_HAL_Driver/Src/stm32f3xx_hal_i2s.c ****     else
 630:Drivers/STM32F3xx_HAL_Driver/Src/stm32f3xx_hal_i2s.c ****     {
 631:Drivers/STM32F3xx_HAL_Driver/Src/stm32f3xx_hal_i2s.c ****       hi2s->RxXferSize = Size;
 632:Drivers/STM32F3xx_HAL_Driver/Src/stm32f3xx_hal_i2s.c ****       hi2s->RxXferCount = Size;
 633:Drivers/STM32F3xx_HAL_Driver/Src/stm32f3xx_hal_i2s.c ****     }
 634:Drivers/STM32F3xx_HAL_Driver/Src/stm32f3xx_hal_i2s.c ****     /* Process Locked */
 635:Drivers/STM32F3xx_HAL_Driver/Src/stm32f3xx_hal_i2s.c ****     __HAL_LOCK(hi2s);
 636:Drivers/STM32F3xx_HAL_Driver/Src/stm32f3xx_hal_i2s.c ****     
 637:Drivers/STM32F3xx_HAL_Driver/Src/stm32f3xx_hal_i2s.c ****     hi2s->ErrorCode = HAL_I2S_ERROR_NONE;
 638:Drivers/STM32F3xx_HAL_Driver/Src/stm32f3xx_hal_i2s.c ****     hi2s->State = HAL_I2S_STATE_BUSY_RX;
 639:Drivers/STM32F3xx_HAL_Driver/Src/stm32f3xx_hal_i2s.c **** 
 640:Drivers/STM32F3xx_HAL_Driver/Src/stm32f3xx_hal_i2s.c ****     /* Enable TXE and ERR interrupt */
 641:Drivers/STM32F3xx_HAL_Driver/Src/stm32f3xx_hal_i2s.c ****     __HAL_I2S_ENABLE_IT(hi2s, (I2S_IT_RXNE | I2S_IT_ERR));
 642:Drivers/STM32F3xx_HAL_Driver/Src/stm32f3xx_hal_i2s.c ****     
 643:Drivers/STM32F3xx_HAL_Driver/Src/stm32f3xx_hal_i2s.c ****     /* Check if the I2S is already enabled */ 
 644:Drivers/STM32F3xx_HAL_Driver/Src/stm32f3xx_hal_i2s.c ****     if((hi2s->Instance->I2SCFGR &SPI_I2SCFGR_I2SE) != SPI_I2SCFGR_I2SE)
 645:Drivers/STM32F3xx_HAL_Driver/Src/stm32f3xx_hal_i2s.c ****     {
 646:Drivers/STM32F3xx_HAL_Driver/Src/stm32f3xx_hal_i2s.c ****       /* Enable I2S peripheral */
 647:Drivers/STM32F3xx_HAL_Driver/Src/stm32f3xx_hal_i2s.c ****       __HAL_I2S_ENABLE(hi2s);
 648:Drivers/STM32F3xx_HAL_Driver/Src/stm32f3xx_hal_i2s.c ****     }
 649:Drivers/STM32F3xx_HAL_Driver/Src/stm32f3xx_hal_i2s.c **** 
 650:Drivers/STM32F3xx_HAL_Driver/Src/stm32f3xx_hal_i2s.c ****     /* Process Unlocked */
 651:Drivers/STM32F3xx_HAL_Driver/Src/stm32f3xx_hal_i2s.c ****     __HAL_UNLOCK(hi2s);
 652:Drivers/STM32F3xx_HAL_Driver/Src/stm32f3xx_hal_i2s.c **** 
 653:Drivers/STM32F3xx_HAL_Driver/Src/stm32f3xx_hal_i2s.c ****     return HAL_OK;
 654:Drivers/STM32F3xx_HAL_Driver/Src/stm32f3xx_hal_i2s.c ****   }
 655:Drivers/STM32F3xx_HAL_Driver/Src/stm32f3xx_hal_i2s.c ****   else
 656:Drivers/STM32F3xx_HAL_Driver/Src/stm32f3xx_hal_i2s.c ****   {
 657:Drivers/STM32F3xx_HAL_Driver/Src/stm32f3xx_hal_i2s.c ****     return HAL_BUSY; 
ARM GAS  C:\Users\SHINRA~1\AppData\Local\Temp\ccBXzGic.s 			page 13


 658:Drivers/STM32F3xx_HAL_Driver/Src/stm32f3xx_hal_i2s.c ****   } 
 659:Drivers/STM32F3xx_HAL_Driver/Src/stm32f3xx_hal_i2s.c **** }
 660:Drivers/STM32F3xx_HAL_Driver/Src/stm32f3xx_hal_i2s.c **** 
 661:Drivers/STM32F3xx_HAL_Driver/Src/stm32f3xx_hal_i2s.c **** /**
 662:Drivers/STM32F3xx_HAL_Driver/Src/stm32f3xx_hal_i2s.c ****   * @brief Transmit an amount of data in non-blocking mode with DMA
 663:Drivers/STM32F3xx_HAL_Driver/Src/stm32f3xx_hal_i2s.c ****   * @param  hi2s: pointer to a I2S_HandleTypeDef structure that contains
 664:Drivers/STM32F3xx_HAL_Driver/Src/stm32f3xx_hal_i2s.c ****   *         the configuration information for I2S module
 665:Drivers/STM32F3xx_HAL_Driver/Src/stm32f3xx_hal_i2s.c ****   * @param pData a 16-bit pointer to the Transmit data buffer.
 666:Drivers/STM32F3xx_HAL_Driver/Src/stm32f3xx_hal_i2s.c ****   * @param Size number of data sample to be sent:
 667:Drivers/STM32F3xx_HAL_Driver/Src/stm32f3xx_hal_i2s.c ****   * @note When a 16-bit data frame or a 16-bit data frame extended is selected during the I2S
 668:Drivers/STM32F3xx_HAL_Driver/Src/stm32f3xx_hal_i2s.c ****   *       configuration phase, the Size parameter means the number of 16-bit data length 
 669:Drivers/STM32F3xx_HAL_Driver/Src/stm32f3xx_hal_i2s.c ****   *       in the transaction and when a 24-bit data frame or a 32-bit data frame is selected 
 670:Drivers/STM32F3xx_HAL_Driver/Src/stm32f3xx_hal_i2s.c ****   *       the Size parameter means the number of 16-bit data length. 
 671:Drivers/STM32F3xx_HAL_Driver/Src/stm32f3xx_hal_i2s.c ****   * @note The I2S is kept enabled at the end of transaction to avoid the clock de-synchronization 
 672:Drivers/STM32F3xx_HAL_Driver/Src/stm32f3xx_hal_i2s.c ****   *       between Master and Slave(example: audio streaming).
 673:Drivers/STM32F3xx_HAL_Driver/Src/stm32f3xx_hal_i2s.c ****   * @retval HAL status
 674:Drivers/STM32F3xx_HAL_Driver/Src/stm32f3xx_hal_i2s.c ****   */
 675:Drivers/STM32F3xx_HAL_Driver/Src/stm32f3xx_hal_i2s.c **** HAL_StatusTypeDef HAL_I2S_Transmit_DMA(I2S_HandleTypeDef *hi2s, uint16_t *pData, uint16_t Size)
 676:Drivers/STM32F3xx_HAL_Driver/Src/stm32f3xx_hal_i2s.c **** {
 677:Drivers/STM32F3xx_HAL_Driver/Src/stm32f3xx_hal_i2s.c ****   uint32_t *tmp;
 678:Drivers/STM32F3xx_HAL_Driver/Src/stm32f3xx_hal_i2s.c ****   
 679:Drivers/STM32F3xx_HAL_Driver/Src/stm32f3xx_hal_i2s.c ****   if((pData == NULL) || (Size == 0U)) 
 680:Drivers/STM32F3xx_HAL_Driver/Src/stm32f3xx_hal_i2s.c ****   {
 681:Drivers/STM32F3xx_HAL_Driver/Src/stm32f3xx_hal_i2s.c ****     return  HAL_ERROR;
 682:Drivers/STM32F3xx_HAL_Driver/Src/stm32f3xx_hal_i2s.c ****   }
 683:Drivers/STM32F3xx_HAL_Driver/Src/stm32f3xx_hal_i2s.c **** 
 684:Drivers/STM32F3xx_HAL_Driver/Src/stm32f3xx_hal_i2s.c ****   if(hi2s->State == HAL_I2S_STATE_READY)
 685:Drivers/STM32F3xx_HAL_Driver/Src/stm32f3xx_hal_i2s.c ****   {  
 686:Drivers/STM32F3xx_HAL_Driver/Src/stm32f3xx_hal_i2s.c ****     hi2s->pTxBuffPtr = pData;
 687:Drivers/STM32F3xx_HAL_Driver/Src/stm32f3xx_hal_i2s.c ****     if(((hi2s->Instance->I2SCFGR & (SPI_I2SCFGR_DATLEN | SPI_I2SCFGR_CHLEN)) == I2S_DATAFORMAT_24B)
 688:Drivers/STM32F3xx_HAL_Driver/Src/stm32f3xx_hal_i2s.c ****       ((hi2s->Instance->I2SCFGR & (SPI_I2SCFGR_DATLEN | SPI_I2SCFGR_CHLEN)) == I2S_DATAFORMAT_32B))
 689:Drivers/STM32F3xx_HAL_Driver/Src/stm32f3xx_hal_i2s.c ****     {
 690:Drivers/STM32F3xx_HAL_Driver/Src/stm32f3xx_hal_i2s.c ****       hi2s->TxXferSize = (Size << 1U);
 691:Drivers/STM32F3xx_HAL_Driver/Src/stm32f3xx_hal_i2s.c ****       hi2s->TxXferCount = (Size << 1U);
 692:Drivers/STM32F3xx_HAL_Driver/Src/stm32f3xx_hal_i2s.c ****     }
 693:Drivers/STM32F3xx_HAL_Driver/Src/stm32f3xx_hal_i2s.c ****     else
 694:Drivers/STM32F3xx_HAL_Driver/Src/stm32f3xx_hal_i2s.c ****     {
 695:Drivers/STM32F3xx_HAL_Driver/Src/stm32f3xx_hal_i2s.c ****       hi2s->TxXferSize = Size;
 696:Drivers/STM32F3xx_HAL_Driver/Src/stm32f3xx_hal_i2s.c ****       hi2s->TxXferCount = Size;
 697:Drivers/STM32F3xx_HAL_Driver/Src/stm32f3xx_hal_i2s.c ****     }
 698:Drivers/STM32F3xx_HAL_Driver/Src/stm32f3xx_hal_i2s.c **** 
 699:Drivers/STM32F3xx_HAL_Driver/Src/stm32f3xx_hal_i2s.c ****     /* Process Locked */
 700:Drivers/STM32F3xx_HAL_Driver/Src/stm32f3xx_hal_i2s.c ****     __HAL_LOCK(hi2s);
 701:Drivers/STM32F3xx_HAL_Driver/Src/stm32f3xx_hal_i2s.c **** 
 702:Drivers/STM32F3xx_HAL_Driver/Src/stm32f3xx_hal_i2s.c ****     hi2s->ErrorCode = HAL_I2S_ERROR_NONE;
 703:Drivers/STM32F3xx_HAL_Driver/Src/stm32f3xx_hal_i2s.c ****     hi2s->State = HAL_I2S_STATE_BUSY_TX;
 704:Drivers/STM32F3xx_HAL_Driver/Src/stm32f3xx_hal_i2s.c **** 
 705:Drivers/STM32F3xx_HAL_Driver/Src/stm32f3xx_hal_i2s.c ****     /* Set the I2S Tx DMA Half transfer complete callback */
 706:Drivers/STM32F3xx_HAL_Driver/Src/stm32f3xx_hal_i2s.c ****     hi2s->hdmatx->XferHalfCpltCallback = I2S_DMATxHalfCplt;
 707:Drivers/STM32F3xx_HAL_Driver/Src/stm32f3xx_hal_i2s.c **** 
 708:Drivers/STM32F3xx_HAL_Driver/Src/stm32f3xx_hal_i2s.c ****     /* Set the I2S Tx DMA transfer complete callback */
 709:Drivers/STM32F3xx_HAL_Driver/Src/stm32f3xx_hal_i2s.c ****     hi2s->hdmatx->XferCpltCallback = I2S_DMATxCplt;
 710:Drivers/STM32F3xx_HAL_Driver/Src/stm32f3xx_hal_i2s.c **** 
 711:Drivers/STM32F3xx_HAL_Driver/Src/stm32f3xx_hal_i2s.c ****     /* Set the DMA error callback */
 712:Drivers/STM32F3xx_HAL_Driver/Src/stm32f3xx_hal_i2s.c ****     hi2s->hdmatx->XferErrorCallback = I2S_DMAError;
 713:Drivers/STM32F3xx_HAL_Driver/Src/stm32f3xx_hal_i2s.c **** 
 714:Drivers/STM32F3xx_HAL_Driver/Src/stm32f3xx_hal_i2s.c ****     /* Enable the Tx DMA Channel */
ARM GAS  C:\Users\SHINRA~1\AppData\Local\Temp\ccBXzGic.s 			page 14


 715:Drivers/STM32F3xx_HAL_Driver/Src/stm32f3xx_hal_i2s.c ****     tmp = (uint32_t*)&pData;
 716:Drivers/STM32F3xx_HAL_Driver/Src/stm32f3xx_hal_i2s.c ****     HAL_DMA_Start_IT(hi2s->hdmatx, *(uint32_t*)tmp, (uint32_t)&hi2s->Instance->DR, hi2s->TxXferSize
 717:Drivers/STM32F3xx_HAL_Driver/Src/stm32f3xx_hal_i2s.c **** 
 718:Drivers/STM32F3xx_HAL_Driver/Src/stm32f3xx_hal_i2s.c ****     /* Check if the I2S is already enabled */ 
 719:Drivers/STM32F3xx_HAL_Driver/Src/stm32f3xx_hal_i2s.c ****     if((hi2s->Instance->I2SCFGR &SPI_I2SCFGR_I2SE) != SPI_I2SCFGR_I2SE)
 720:Drivers/STM32F3xx_HAL_Driver/Src/stm32f3xx_hal_i2s.c ****     {
 721:Drivers/STM32F3xx_HAL_Driver/Src/stm32f3xx_hal_i2s.c ****       /* Enable I2S peripheral */
 722:Drivers/STM32F3xx_HAL_Driver/Src/stm32f3xx_hal_i2s.c ****       __HAL_I2S_ENABLE(hi2s);
 723:Drivers/STM32F3xx_HAL_Driver/Src/stm32f3xx_hal_i2s.c ****     }
 724:Drivers/STM32F3xx_HAL_Driver/Src/stm32f3xx_hal_i2s.c **** 
 725:Drivers/STM32F3xx_HAL_Driver/Src/stm32f3xx_hal_i2s.c ****     /* Enable Tx DMA Request */
 726:Drivers/STM32F3xx_HAL_Driver/Src/stm32f3xx_hal_i2s.c ****     hi2s->Instance->CR2 |= SPI_CR2_TXDMAEN;
 727:Drivers/STM32F3xx_HAL_Driver/Src/stm32f3xx_hal_i2s.c **** 
 728:Drivers/STM32F3xx_HAL_Driver/Src/stm32f3xx_hal_i2s.c ****     /* Process Unlocked */
 729:Drivers/STM32F3xx_HAL_Driver/Src/stm32f3xx_hal_i2s.c ****     __HAL_UNLOCK(hi2s);
 730:Drivers/STM32F3xx_HAL_Driver/Src/stm32f3xx_hal_i2s.c ****     
 731:Drivers/STM32F3xx_HAL_Driver/Src/stm32f3xx_hal_i2s.c ****     return HAL_OK;
 732:Drivers/STM32F3xx_HAL_Driver/Src/stm32f3xx_hal_i2s.c ****   }
 733:Drivers/STM32F3xx_HAL_Driver/Src/stm32f3xx_hal_i2s.c ****   else
 734:Drivers/STM32F3xx_HAL_Driver/Src/stm32f3xx_hal_i2s.c ****   {
 735:Drivers/STM32F3xx_HAL_Driver/Src/stm32f3xx_hal_i2s.c ****     return HAL_BUSY;
 736:Drivers/STM32F3xx_HAL_Driver/Src/stm32f3xx_hal_i2s.c ****   }
 737:Drivers/STM32F3xx_HAL_Driver/Src/stm32f3xx_hal_i2s.c **** }
 738:Drivers/STM32F3xx_HAL_Driver/Src/stm32f3xx_hal_i2s.c **** 
 739:Drivers/STM32F3xx_HAL_Driver/Src/stm32f3xx_hal_i2s.c **** /**
 740:Drivers/STM32F3xx_HAL_Driver/Src/stm32f3xx_hal_i2s.c ****   * @brief Receive an amount of data in non-blocking mode with DMA 
 741:Drivers/STM32F3xx_HAL_Driver/Src/stm32f3xx_hal_i2s.c ****   * @param  hi2s: pointer to a I2S_HandleTypeDef structure that contains
 742:Drivers/STM32F3xx_HAL_Driver/Src/stm32f3xx_hal_i2s.c ****   *         the configuration information for I2S module
 743:Drivers/STM32F3xx_HAL_Driver/Src/stm32f3xx_hal_i2s.c ****   * @param pData a 16-bit pointer to the Receive data buffer.
 744:Drivers/STM32F3xx_HAL_Driver/Src/stm32f3xx_hal_i2s.c ****   * @param Size number of data sample to be sent:
 745:Drivers/STM32F3xx_HAL_Driver/Src/stm32f3xx_hal_i2s.c ****   * @note When a 16-bit data frame or a 16-bit data frame extended is selected during the I2S
 746:Drivers/STM32F3xx_HAL_Driver/Src/stm32f3xx_hal_i2s.c ****   *       configuration phase, the Size parameter means the number of 16-bit data length 
 747:Drivers/STM32F3xx_HAL_Driver/Src/stm32f3xx_hal_i2s.c ****   *       in the transaction and when a 24-bit data frame or a 32-bit data frame is selected 
 748:Drivers/STM32F3xx_HAL_Driver/Src/stm32f3xx_hal_i2s.c ****   *       the Size parameter means the number of 16-bit data length. 
 749:Drivers/STM32F3xx_HAL_Driver/Src/stm32f3xx_hal_i2s.c ****   * @note The I2S is kept enabled at the end of transaction to avoid the clock de-synchronization 
 750:Drivers/STM32F3xx_HAL_Driver/Src/stm32f3xx_hal_i2s.c ****   *       between Master and Slave(example: audio streaming).
 751:Drivers/STM32F3xx_HAL_Driver/Src/stm32f3xx_hal_i2s.c ****   * @retval HAL status
 752:Drivers/STM32F3xx_HAL_Driver/Src/stm32f3xx_hal_i2s.c ****   */
 753:Drivers/STM32F3xx_HAL_Driver/Src/stm32f3xx_hal_i2s.c **** HAL_StatusTypeDef HAL_I2S_Receive_DMA(I2S_HandleTypeDef *hi2s, uint16_t *pData, uint16_t Size)
 754:Drivers/STM32F3xx_HAL_Driver/Src/stm32f3xx_hal_i2s.c **** {
 755:Drivers/STM32F3xx_HAL_Driver/Src/stm32f3xx_hal_i2s.c ****   uint32_t *tmp;
 756:Drivers/STM32F3xx_HAL_Driver/Src/stm32f3xx_hal_i2s.c ****   
 757:Drivers/STM32F3xx_HAL_Driver/Src/stm32f3xx_hal_i2s.c ****   if((pData == NULL) || (Size == 0U)) 
 758:Drivers/STM32F3xx_HAL_Driver/Src/stm32f3xx_hal_i2s.c ****   {
 759:Drivers/STM32F3xx_HAL_Driver/Src/stm32f3xx_hal_i2s.c ****     return  HAL_ERROR;
 760:Drivers/STM32F3xx_HAL_Driver/Src/stm32f3xx_hal_i2s.c ****   }
 761:Drivers/STM32F3xx_HAL_Driver/Src/stm32f3xx_hal_i2s.c **** 
 762:Drivers/STM32F3xx_HAL_Driver/Src/stm32f3xx_hal_i2s.c ****   if(hi2s->State == HAL_I2S_STATE_READY)
 763:Drivers/STM32F3xx_HAL_Driver/Src/stm32f3xx_hal_i2s.c ****   {
 764:Drivers/STM32F3xx_HAL_Driver/Src/stm32f3xx_hal_i2s.c ****     hi2s->pRxBuffPtr = pData;
 765:Drivers/STM32F3xx_HAL_Driver/Src/stm32f3xx_hal_i2s.c ****     if(((hi2s->Instance->I2SCFGR & (SPI_I2SCFGR_DATLEN | SPI_I2SCFGR_CHLEN)) == I2S_DATAFORMAT_24B)
 766:Drivers/STM32F3xx_HAL_Driver/Src/stm32f3xx_hal_i2s.c ****       ((hi2s->Instance->I2SCFGR & (SPI_I2SCFGR_DATLEN | SPI_I2SCFGR_CHLEN)) == I2S_DATAFORMAT_32B))
 767:Drivers/STM32F3xx_HAL_Driver/Src/stm32f3xx_hal_i2s.c ****     {
 768:Drivers/STM32F3xx_HAL_Driver/Src/stm32f3xx_hal_i2s.c ****       hi2s->RxXferSize = (Size << 1U);
 769:Drivers/STM32F3xx_HAL_Driver/Src/stm32f3xx_hal_i2s.c ****       hi2s->RxXferCount = (Size << 1U);
 770:Drivers/STM32F3xx_HAL_Driver/Src/stm32f3xx_hal_i2s.c ****     }
 771:Drivers/STM32F3xx_HAL_Driver/Src/stm32f3xx_hal_i2s.c ****     else
ARM GAS  C:\Users\SHINRA~1\AppData\Local\Temp\ccBXzGic.s 			page 15


 772:Drivers/STM32F3xx_HAL_Driver/Src/stm32f3xx_hal_i2s.c ****     {
 773:Drivers/STM32F3xx_HAL_Driver/Src/stm32f3xx_hal_i2s.c ****       hi2s->RxXferSize = Size;
 774:Drivers/STM32F3xx_HAL_Driver/Src/stm32f3xx_hal_i2s.c ****       hi2s->RxXferCount = Size;
 775:Drivers/STM32F3xx_HAL_Driver/Src/stm32f3xx_hal_i2s.c ****     }
 776:Drivers/STM32F3xx_HAL_Driver/Src/stm32f3xx_hal_i2s.c ****     /* Process Locked */
 777:Drivers/STM32F3xx_HAL_Driver/Src/stm32f3xx_hal_i2s.c ****     __HAL_LOCK(hi2s);
 778:Drivers/STM32F3xx_HAL_Driver/Src/stm32f3xx_hal_i2s.c ****     
 779:Drivers/STM32F3xx_HAL_Driver/Src/stm32f3xx_hal_i2s.c ****     hi2s->ErrorCode = HAL_I2S_ERROR_NONE;
 780:Drivers/STM32F3xx_HAL_Driver/Src/stm32f3xx_hal_i2s.c ****     hi2s->State = HAL_I2S_STATE_BUSY_RX;
 781:Drivers/STM32F3xx_HAL_Driver/Src/stm32f3xx_hal_i2s.c ****    
 782:Drivers/STM32F3xx_HAL_Driver/Src/stm32f3xx_hal_i2s.c ****     /* Set the I2S Rx DMA Half transfer complete callback */
 783:Drivers/STM32F3xx_HAL_Driver/Src/stm32f3xx_hal_i2s.c ****     hi2s->hdmarx->XferHalfCpltCallback = I2S_DMARxHalfCplt;
 784:Drivers/STM32F3xx_HAL_Driver/Src/stm32f3xx_hal_i2s.c **** 
 785:Drivers/STM32F3xx_HAL_Driver/Src/stm32f3xx_hal_i2s.c ****     /* Set the I2S Rx DMA transfer complete callback */
 786:Drivers/STM32F3xx_HAL_Driver/Src/stm32f3xx_hal_i2s.c ****     hi2s->hdmarx->XferCpltCallback = I2S_DMARxCplt;
 787:Drivers/STM32F3xx_HAL_Driver/Src/stm32f3xx_hal_i2s.c ****     
 788:Drivers/STM32F3xx_HAL_Driver/Src/stm32f3xx_hal_i2s.c ****     /* Set the DMA error callback */
 789:Drivers/STM32F3xx_HAL_Driver/Src/stm32f3xx_hal_i2s.c ****     hi2s->hdmarx->XferErrorCallback = I2S_DMAError;
 790:Drivers/STM32F3xx_HAL_Driver/Src/stm32f3xx_hal_i2s.c ****     
 791:Drivers/STM32F3xx_HAL_Driver/Src/stm32f3xx_hal_i2s.c ****     /* Check if Master Receiver mode is selected */
 792:Drivers/STM32F3xx_HAL_Driver/Src/stm32f3xx_hal_i2s.c ****     if((hi2s->Instance->I2SCFGR & SPI_I2SCFGR_I2SCFG) == I2S_MODE_MASTER_RX)
 793:Drivers/STM32F3xx_HAL_Driver/Src/stm32f3xx_hal_i2s.c ****     {
 794:Drivers/STM32F3xx_HAL_Driver/Src/stm32f3xx_hal_i2s.c ****       /* Clear the Overrun Flag by a read operation to the SPI_DR register followed by a read
 795:Drivers/STM32F3xx_HAL_Driver/Src/stm32f3xx_hal_i2s.c ****       access to the SPI_SR register. */ 
 796:Drivers/STM32F3xx_HAL_Driver/Src/stm32f3xx_hal_i2s.c ****       __HAL_I2S_CLEAR_OVRFLAG(hi2s);
 797:Drivers/STM32F3xx_HAL_Driver/Src/stm32f3xx_hal_i2s.c ****     }
 798:Drivers/STM32F3xx_HAL_Driver/Src/stm32f3xx_hal_i2s.c ****     
 799:Drivers/STM32F3xx_HAL_Driver/Src/stm32f3xx_hal_i2s.c ****     /* Enable the Rx DMA Channel */
 800:Drivers/STM32F3xx_HAL_Driver/Src/stm32f3xx_hal_i2s.c ****     tmp = (uint32_t*)&pData;
 801:Drivers/STM32F3xx_HAL_Driver/Src/stm32f3xx_hal_i2s.c ****     HAL_DMA_Start_IT(hi2s->hdmarx, (uint32_t)&hi2s->Instance->DR, *(uint32_t*)tmp, hi2s->RxXferSize
 802:Drivers/STM32F3xx_HAL_Driver/Src/stm32f3xx_hal_i2s.c ****     
 803:Drivers/STM32F3xx_HAL_Driver/Src/stm32f3xx_hal_i2s.c ****     /* Check if the I2S is already enabled */ 
 804:Drivers/STM32F3xx_HAL_Driver/Src/stm32f3xx_hal_i2s.c ****     if((hi2s->Instance->I2SCFGR &SPI_I2SCFGR_I2SE) != SPI_I2SCFGR_I2SE)
 805:Drivers/STM32F3xx_HAL_Driver/Src/stm32f3xx_hal_i2s.c ****     {
 806:Drivers/STM32F3xx_HAL_Driver/Src/stm32f3xx_hal_i2s.c ****       /* Enable I2S peripheral */
 807:Drivers/STM32F3xx_HAL_Driver/Src/stm32f3xx_hal_i2s.c ****       __HAL_I2S_ENABLE(hi2s);
 808:Drivers/STM32F3xx_HAL_Driver/Src/stm32f3xx_hal_i2s.c ****     }
 809:Drivers/STM32F3xx_HAL_Driver/Src/stm32f3xx_hal_i2s.c **** 
 810:Drivers/STM32F3xx_HAL_Driver/Src/stm32f3xx_hal_i2s.c ****     /* Enable Rx DMA Request */
 811:Drivers/STM32F3xx_HAL_Driver/Src/stm32f3xx_hal_i2s.c ****     hi2s->Instance->CR2 |= SPI_CR2_RXDMAEN;
 812:Drivers/STM32F3xx_HAL_Driver/Src/stm32f3xx_hal_i2s.c **** 
 813:Drivers/STM32F3xx_HAL_Driver/Src/stm32f3xx_hal_i2s.c ****     /* Process Unlocked */
 814:Drivers/STM32F3xx_HAL_Driver/Src/stm32f3xx_hal_i2s.c ****     __HAL_UNLOCK(hi2s);
 815:Drivers/STM32F3xx_HAL_Driver/Src/stm32f3xx_hal_i2s.c **** 
 816:Drivers/STM32F3xx_HAL_Driver/Src/stm32f3xx_hal_i2s.c ****     return HAL_OK;
 817:Drivers/STM32F3xx_HAL_Driver/Src/stm32f3xx_hal_i2s.c ****   }
 818:Drivers/STM32F3xx_HAL_Driver/Src/stm32f3xx_hal_i2s.c ****   else
 819:Drivers/STM32F3xx_HAL_Driver/Src/stm32f3xx_hal_i2s.c ****   {
 820:Drivers/STM32F3xx_HAL_Driver/Src/stm32f3xx_hal_i2s.c ****     return HAL_BUSY;
 821:Drivers/STM32F3xx_HAL_Driver/Src/stm32f3xx_hal_i2s.c ****   }
 822:Drivers/STM32F3xx_HAL_Driver/Src/stm32f3xx_hal_i2s.c **** }
 823:Drivers/STM32F3xx_HAL_Driver/Src/stm32f3xx_hal_i2s.c **** 
 824:Drivers/STM32F3xx_HAL_Driver/Src/stm32f3xx_hal_i2s.c **** /**
 825:Drivers/STM32F3xx_HAL_Driver/Src/stm32f3xx_hal_i2s.c ****   * @brief Pauses the audio stream playing from the Media.
 826:Drivers/STM32F3xx_HAL_Driver/Src/stm32f3xx_hal_i2s.c ****   * @param  hi2s: pointer to a I2S_HandleTypeDef structure that contains
 827:Drivers/STM32F3xx_HAL_Driver/Src/stm32f3xx_hal_i2s.c ****   *         the configuration information for I2S module
 828:Drivers/STM32F3xx_HAL_Driver/Src/stm32f3xx_hal_i2s.c ****   * @retval HAL status
ARM GAS  C:\Users\SHINRA~1\AppData\Local\Temp\ccBXzGic.s 			page 16


 829:Drivers/STM32F3xx_HAL_Driver/Src/stm32f3xx_hal_i2s.c ****   */
 830:Drivers/STM32F3xx_HAL_Driver/Src/stm32f3xx_hal_i2s.c **** __weak HAL_StatusTypeDef HAL_I2S_DMAPause(I2S_HandleTypeDef *hi2s)
 831:Drivers/STM32F3xx_HAL_Driver/Src/stm32f3xx_hal_i2s.c **** {
 832:Drivers/STM32F3xx_HAL_Driver/Src/stm32f3xx_hal_i2s.c ****   /* Process Locked */
 833:Drivers/STM32F3xx_HAL_Driver/Src/stm32f3xx_hal_i2s.c ****   __HAL_LOCK(hi2s);
 834:Drivers/STM32F3xx_HAL_Driver/Src/stm32f3xx_hal_i2s.c ****   
 835:Drivers/STM32F3xx_HAL_Driver/Src/stm32f3xx_hal_i2s.c ****   if(hi2s->State == HAL_I2S_STATE_BUSY_TX)
 836:Drivers/STM32F3xx_HAL_Driver/Src/stm32f3xx_hal_i2s.c ****   {
 837:Drivers/STM32F3xx_HAL_Driver/Src/stm32f3xx_hal_i2s.c ****     /* Disable the I2S DMA Tx request */
 838:Drivers/STM32F3xx_HAL_Driver/Src/stm32f3xx_hal_i2s.c ****     hi2s->Instance->CR2 &= (uint32_t)(~SPI_CR2_TXDMAEN);
 839:Drivers/STM32F3xx_HAL_Driver/Src/stm32f3xx_hal_i2s.c ****   }
 840:Drivers/STM32F3xx_HAL_Driver/Src/stm32f3xx_hal_i2s.c ****   else if(hi2s->State == HAL_I2S_STATE_BUSY_RX)
 841:Drivers/STM32F3xx_HAL_Driver/Src/stm32f3xx_hal_i2s.c ****   {
 842:Drivers/STM32F3xx_HAL_Driver/Src/stm32f3xx_hal_i2s.c ****     /* Disable the I2S DMA Rx request */
 843:Drivers/STM32F3xx_HAL_Driver/Src/stm32f3xx_hal_i2s.c ****     hi2s->Instance->CR2 &= (uint32_t)(~SPI_CR2_RXDMAEN);
 844:Drivers/STM32F3xx_HAL_Driver/Src/stm32f3xx_hal_i2s.c ****   }
 845:Drivers/STM32F3xx_HAL_Driver/Src/stm32f3xx_hal_i2s.c ****   
 846:Drivers/STM32F3xx_HAL_Driver/Src/stm32f3xx_hal_i2s.c ****   /* Process Unlocked */
 847:Drivers/STM32F3xx_HAL_Driver/Src/stm32f3xx_hal_i2s.c ****   __HAL_UNLOCK(hi2s);
 848:Drivers/STM32F3xx_HAL_Driver/Src/stm32f3xx_hal_i2s.c ****   
 849:Drivers/STM32F3xx_HAL_Driver/Src/stm32f3xx_hal_i2s.c ****   return HAL_OK; 
 850:Drivers/STM32F3xx_HAL_Driver/Src/stm32f3xx_hal_i2s.c **** }
 851:Drivers/STM32F3xx_HAL_Driver/Src/stm32f3xx_hal_i2s.c **** 
 852:Drivers/STM32F3xx_HAL_Driver/Src/stm32f3xx_hal_i2s.c **** /**
 853:Drivers/STM32F3xx_HAL_Driver/Src/stm32f3xx_hal_i2s.c ****   * @brief Resumes the audio stream playing from the Media.
 854:Drivers/STM32F3xx_HAL_Driver/Src/stm32f3xx_hal_i2s.c ****   * @param  hi2s: pointer to a I2S_HandleTypeDef structure that contains
 855:Drivers/STM32F3xx_HAL_Driver/Src/stm32f3xx_hal_i2s.c ****   *         the configuration information for I2S module
 856:Drivers/STM32F3xx_HAL_Driver/Src/stm32f3xx_hal_i2s.c ****   * @retval HAL status
 857:Drivers/STM32F3xx_HAL_Driver/Src/stm32f3xx_hal_i2s.c ****   */
 858:Drivers/STM32F3xx_HAL_Driver/Src/stm32f3xx_hal_i2s.c **** __weak HAL_StatusTypeDef HAL_I2S_DMAResume(I2S_HandleTypeDef *hi2s)
 859:Drivers/STM32F3xx_HAL_Driver/Src/stm32f3xx_hal_i2s.c **** {
 860:Drivers/STM32F3xx_HAL_Driver/Src/stm32f3xx_hal_i2s.c ****   /* Process Locked */
 861:Drivers/STM32F3xx_HAL_Driver/Src/stm32f3xx_hal_i2s.c ****   __HAL_LOCK(hi2s);
 862:Drivers/STM32F3xx_HAL_Driver/Src/stm32f3xx_hal_i2s.c ****   
 863:Drivers/STM32F3xx_HAL_Driver/Src/stm32f3xx_hal_i2s.c ****   if(hi2s->State == HAL_I2S_STATE_BUSY_TX)
 864:Drivers/STM32F3xx_HAL_Driver/Src/stm32f3xx_hal_i2s.c ****   {
 865:Drivers/STM32F3xx_HAL_Driver/Src/stm32f3xx_hal_i2s.c ****     /* Enable the I2S DMA Tx request */
 866:Drivers/STM32F3xx_HAL_Driver/Src/stm32f3xx_hal_i2s.c ****     hi2s->Instance->CR2 |= SPI_CR2_TXDMAEN;
 867:Drivers/STM32F3xx_HAL_Driver/Src/stm32f3xx_hal_i2s.c ****   }
 868:Drivers/STM32F3xx_HAL_Driver/Src/stm32f3xx_hal_i2s.c ****   else if(hi2s->State == HAL_I2S_STATE_BUSY_RX)
 869:Drivers/STM32F3xx_HAL_Driver/Src/stm32f3xx_hal_i2s.c ****   {
 870:Drivers/STM32F3xx_HAL_Driver/Src/stm32f3xx_hal_i2s.c ****     /* Enable the I2S DMA Rx request */
 871:Drivers/STM32F3xx_HAL_Driver/Src/stm32f3xx_hal_i2s.c ****     hi2s->Instance->CR2 |= SPI_CR2_RXDMAEN;
 872:Drivers/STM32F3xx_HAL_Driver/Src/stm32f3xx_hal_i2s.c ****   }
 873:Drivers/STM32F3xx_HAL_Driver/Src/stm32f3xx_hal_i2s.c ****   
 874:Drivers/STM32F3xx_HAL_Driver/Src/stm32f3xx_hal_i2s.c ****   /* If the I2S peripheral is still not enabled, enable it */
 875:Drivers/STM32F3xx_HAL_Driver/Src/stm32f3xx_hal_i2s.c ****   if ((hi2s->Instance->I2SCFGR & SPI_I2SCFGR_I2SE) == 0U)
 876:Drivers/STM32F3xx_HAL_Driver/Src/stm32f3xx_hal_i2s.c ****   {
 877:Drivers/STM32F3xx_HAL_Driver/Src/stm32f3xx_hal_i2s.c ****     /* Enable I2S peripheral */    
 878:Drivers/STM32F3xx_HAL_Driver/Src/stm32f3xx_hal_i2s.c ****     __HAL_I2S_ENABLE(hi2s);
 879:Drivers/STM32F3xx_HAL_Driver/Src/stm32f3xx_hal_i2s.c ****   }
 880:Drivers/STM32F3xx_HAL_Driver/Src/stm32f3xx_hal_i2s.c ****   
 881:Drivers/STM32F3xx_HAL_Driver/Src/stm32f3xx_hal_i2s.c ****   /* Process Unlocked */
 882:Drivers/STM32F3xx_HAL_Driver/Src/stm32f3xx_hal_i2s.c ****   __HAL_UNLOCK(hi2s);
 883:Drivers/STM32F3xx_HAL_Driver/Src/stm32f3xx_hal_i2s.c ****   
 884:Drivers/STM32F3xx_HAL_Driver/Src/stm32f3xx_hal_i2s.c ****   return HAL_OK;
 885:Drivers/STM32F3xx_HAL_Driver/Src/stm32f3xx_hal_i2s.c **** }
ARM GAS  C:\Users\SHINRA~1\AppData\Local\Temp\ccBXzGic.s 			page 17


 886:Drivers/STM32F3xx_HAL_Driver/Src/stm32f3xx_hal_i2s.c **** 
 887:Drivers/STM32F3xx_HAL_Driver/Src/stm32f3xx_hal_i2s.c **** /**
 888:Drivers/STM32F3xx_HAL_Driver/Src/stm32f3xx_hal_i2s.c ****   * @brief Resumes the audio stream playing from the Media.
 889:Drivers/STM32F3xx_HAL_Driver/Src/stm32f3xx_hal_i2s.c ****   * @param  hi2s: pointer to a I2S_HandleTypeDef structure that contains
 890:Drivers/STM32F3xx_HAL_Driver/Src/stm32f3xx_hal_i2s.c ****   *         the configuration information for I2S module
 891:Drivers/STM32F3xx_HAL_Driver/Src/stm32f3xx_hal_i2s.c ****   * @retval HAL status
 892:Drivers/STM32F3xx_HAL_Driver/Src/stm32f3xx_hal_i2s.c ****   */
 893:Drivers/STM32F3xx_HAL_Driver/Src/stm32f3xx_hal_i2s.c **** __weak HAL_StatusTypeDef HAL_I2S_DMAStop(I2S_HandleTypeDef *hi2s)
 894:Drivers/STM32F3xx_HAL_Driver/Src/stm32f3xx_hal_i2s.c **** {
 895:Drivers/STM32F3xx_HAL_Driver/Src/stm32f3xx_hal_i2s.c ****   /* Process Locked */
 896:Drivers/STM32F3xx_HAL_Driver/Src/stm32f3xx_hal_i2s.c ****   __HAL_LOCK(hi2s);
 897:Drivers/STM32F3xx_HAL_Driver/Src/stm32f3xx_hal_i2s.c ****   
 898:Drivers/STM32F3xx_HAL_Driver/Src/stm32f3xx_hal_i2s.c ****   /* Disable the I2S Tx/Rx DMA requests */
 899:Drivers/STM32F3xx_HAL_Driver/Src/stm32f3xx_hal_i2s.c ****   hi2s->Instance->CR2 &= (uint32_t)(~SPI_CR2_TXDMAEN);
 900:Drivers/STM32F3xx_HAL_Driver/Src/stm32f3xx_hal_i2s.c ****   hi2s->Instance->CR2 &= (uint32_t)(~SPI_CR2_RXDMAEN);
 901:Drivers/STM32F3xx_HAL_Driver/Src/stm32f3xx_hal_i2s.c ****   
 902:Drivers/STM32F3xx_HAL_Driver/Src/stm32f3xx_hal_i2s.c ****   /* Abort the I2S DMA tx channel */
 903:Drivers/STM32F3xx_HAL_Driver/Src/stm32f3xx_hal_i2s.c ****   if(hi2s->hdmatx != NULL)
 904:Drivers/STM32F3xx_HAL_Driver/Src/stm32f3xx_hal_i2s.c ****   {
 905:Drivers/STM32F3xx_HAL_Driver/Src/stm32f3xx_hal_i2s.c ****     /* Disable the I2S DMA channel */
 906:Drivers/STM32F3xx_HAL_Driver/Src/stm32f3xx_hal_i2s.c ****     __HAL_DMA_DISABLE(hi2s->hdmatx);
 907:Drivers/STM32F3xx_HAL_Driver/Src/stm32f3xx_hal_i2s.c ****     HAL_DMA_Abort(hi2s->hdmatx);
 908:Drivers/STM32F3xx_HAL_Driver/Src/stm32f3xx_hal_i2s.c ****   }
 909:Drivers/STM32F3xx_HAL_Driver/Src/stm32f3xx_hal_i2s.c ****   /* Abort the I2S DMA rx channel */
 910:Drivers/STM32F3xx_HAL_Driver/Src/stm32f3xx_hal_i2s.c ****   if(hi2s->hdmarx != NULL)
 911:Drivers/STM32F3xx_HAL_Driver/Src/stm32f3xx_hal_i2s.c ****   {
 912:Drivers/STM32F3xx_HAL_Driver/Src/stm32f3xx_hal_i2s.c ****     /* Disable the I2S DMA channel */
 913:Drivers/STM32F3xx_HAL_Driver/Src/stm32f3xx_hal_i2s.c ****     __HAL_DMA_DISABLE(hi2s->hdmarx);
 914:Drivers/STM32F3xx_HAL_Driver/Src/stm32f3xx_hal_i2s.c ****     HAL_DMA_Abort(hi2s->hdmarx);
 915:Drivers/STM32F3xx_HAL_Driver/Src/stm32f3xx_hal_i2s.c ****   }
 916:Drivers/STM32F3xx_HAL_Driver/Src/stm32f3xx_hal_i2s.c **** 
 917:Drivers/STM32F3xx_HAL_Driver/Src/stm32f3xx_hal_i2s.c ****   /* Disable I2S peripheral */
 918:Drivers/STM32F3xx_HAL_Driver/Src/stm32f3xx_hal_i2s.c ****   __HAL_I2S_DISABLE(hi2s);
 919:Drivers/STM32F3xx_HAL_Driver/Src/stm32f3xx_hal_i2s.c ****   
 920:Drivers/STM32F3xx_HAL_Driver/Src/stm32f3xx_hal_i2s.c ****   hi2s->State = HAL_I2S_STATE_READY;
 921:Drivers/STM32F3xx_HAL_Driver/Src/stm32f3xx_hal_i2s.c ****   
 922:Drivers/STM32F3xx_HAL_Driver/Src/stm32f3xx_hal_i2s.c ****   /* Process Unlocked */
 923:Drivers/STM32F3xx_HAL_Driver/Src/stm32f3xx_hal_i2s.c ****   __HAL_UNLOCK(hi2s);
 924:Drivers/STM32F3xx_HAL_Driver/Src/stm32f3xx_hal_i2s.c ****   
 925:Drivers/STM32F3xx_HAL_Driver/Src/stm32f3xx_hal_i2s.c ****   return HAL_OK;
 926:Drivers/STM32F3xx_HAL_Driver/Src/stm32f3xx_hal_i2s.c **** }
 927:Drivers/STM32F3xx_HAL_Driver/Src/stm32f3xx_hal_i2s.c **** 
 928:Drivers/STM32F3xx_HAL_Driver/Src/stm32f3xx_hal_i2s.c **** /**
 929:Drivers/STM32F3xx_HAL_Driver/Src/stm32f3xx_hal_i2s.c ****   * @brief  This function handles I2S interrupt request.
 930:Drivers/STM32F3xx_HAL_Driver/Src/stm32f3xx_hal_i2s.c ****   * @param  hi2s: pointer to a I2S_HandleTypeDef structure that contains
 931:Drivers/STM32F3xx_HAL_Driver/Src/stm32f3xx_hal_i2s.c ****   *         the configuration information for I2S module
 932:Drivers/STM32F3xx_HAL_Driver/Src/stm32f3xx_hal_i2s.c ****   * @retval None
 933:Drivers/STM32F3xx_HAL_Driver/Src/stm32f3xx_hal_i2s.c ****   */
 934:Drivers/STM32F3xx_HAL_Driver/Src/stm32f3xx_hal_i2s.c **** void HAL_I2S_IRQHandler(I2S_HandleTypeDef *hi2s)
 935:Drivers/STM32F3xx_HAL_Driver/Src/stm32f3xx_hal_i2s.c **** {  
 936:Drivers/STM32F3xx_HAL_Driver/Src/stm32f3xx_hal_i2s.c ****   __IO uint32_t i2ssr = hi2s->Instance->SR;
 937:Drivers/STM32F3xx_HAL_Driver/Src/stm32f3xx_hal_i2s.c **** 
 938:Drivers/STM32F3xx_HAL_Driver/Src/stm32f3xx_hal_i2s.c ****   if(hi2s->State == HAL_I2S_STATE_BUSY_RX)
 939:Drivers/STM32F3xx_HAL_Driver/Src/stm32f3xx_hal_i2s.c ****   {  
 940:Drivers/STM32F3xx_HAL_Driver/Src/stm32f3xx_hal_i2s.c ****     /* I2S in mode Receiver ----------------------------------------------------*/
 941:Drivers/STM32F3xx_HAL_Driver/Src/stm32f3xx_hal_i2s.c ****     if(((i2ssr & I2S_FLAG_RXNE) == I2S_FLAG_RXNE) && (__HAL_I2S_GET_IT_SOURCE(hi2s, I2S_IT_RXNE) !=
 942:Drivers/STM32F3xx_HAL_Driver/Src/stm32f3xx_hal_i2s.c ****     {
ARM GAS  C:\Users\SHINRA~1\AppData\Local\Temp\ccBXzGic.s 			page 18


 943:Drivers/STM32F3xx_HAL_Driver/Src/stm32f3xx_hal_i2s.c ****       I2S_Receive_IT(hi2s);
 944:Drivers/STM32F3xx_HAL_Driver/Src/stm32f3xx_hal_i2s.c ****     }
 945:Drivers/STM32F3xx_HAL_Driver/Src/stm32f3xx_hal_i2s.c **** 
 946:Drivers/STM32F3xx_HAL_Driver/Src/stm32f3xx_hal_i2s.c ****     /* I2S Overrun error interrupt occured -------------------------------------*/
 947:Drivers/STM32F3xx_HAL_Driver/Src/stm32f3xx_hal_i2s.c ****     if(((i2ssr & I2S_FLAG_OVR) == I2S_FLAG_OVR) && (__HAL_I2S_GET_IT_SOURCE(hi2s, I2S_IT_ERR) != RE
 948:Drivers/STM32F3xx_HAL_Driver/Src/stm32f3xx_hal_i2s.c ****     {
 949:Drivers/STM32F3xx_HAL_Driver/Src/stm32f3xx_hal_i2s.c ****       /* Disable RXNE and ERR interrupt */
 950:Drivers/STM32F3xx_HAL_Driver/Src/stm32f3xx_hal_i2s.c ****       __HAL_I2S_DISABLE_IT(hi2s, (I2S_IT_RXNE | I2S_IT_ERR));
 951:Drivers/STM32F3xx_HAL_Driver/Src/stm32f3xx_hal_i2s.c **** 
 952:Drivers/STM32F3xx_HAL_Driver/Src/stm32f3xx_hal_i2s.c ****       /* Set the I2S State ready */
 953:Drivers/STM32F3xx_HAL_Driver/Src/stm32f3xx_hal_i2s.c ****       hi2s->State = HAL_I2S_STATE_READY; 
 954:Drivers/STM32F3xx_HAL_Driver/Src/stm32f3xx_hal_i2s.c **** 
 955:Drivers/STM32F3xx_HAL_Driver/Src/stm32f3xx_hal_i2s.c ****       /* Set the error code and execute error callback*/
 956:Drivers/STM32F3xx_HAL_Driver/Src/stm32f3xx_hal_i2s.c ****       hi2s->ErrorCode |= HAL_I2S_ERROR_OVR;
 957:Drivers/STM32F3xx_HAL_Driver/Src/stm32f3xx_hal_i2s.c ****       HAL_I2S_ErrorCallback(hi2s);
 958:Drivers/STM32F3xx_HAL_Driver/Src/stm32f3xx_hal_i2s.c ****     }  
 959:Drivers/STM32F3xx_HAL_Driver/Src/stm32f3xx_hal_i2s.c ****   }
 960:Drivers/STM32F3xx_HAL_Driver/Src/stm32f3xx_hal_i2s.c ****   else if(hi2s->State == HAL_I2S_STATE_BUSY_TX)
 961:Drivers/STM32F3xx_HAL_Driver/Src/stm32f3xx_hal_i2s.c ****   {  
 962:Drivers/STM32F3xx_HAL_Driver/Src/stm32f3xx_hal_i2s.c ****     /* I2S in mode Tramitter ---------------------------------------------------*/
 963:Drivers/STM32F3xx_HAL_Driver/Src/stm32f3xx_hal_i2s.c ****     if(((i2ssr & I2S_FLAG_TXE) == I2S_FLAG_TXE) && (__HAL_I2S_GET_IT_SOURCE(hi2s, I2S_IT_TXE) != RE
 964:Drivers/STM32F3xx_HAL_Driver/Src/stm32f3xx_hal_i2s.c ****     {     
 965:Drivers/STM32F3xx_HAL_Driver/Src/stm32f3xx_hal_i2s.c ****       I2S_Transmit_IT(hi2s);
 966:Drivers/STM32F3xx_HAL_Driver/Src/stm32f3xx_hal_i2s.c ****     } 
 967:Drivers/STM32F3xx_HAL_Driver/Src/stm32f3xx_hal_i2s.c ****     
 968:Drivers/STM32F3xx_HAL_Driver/Src/stm32f3xx_hal_i2s.c ****     /* I2S Underrun error interrupt occured ------------------------------------*/
 969:Drivers/STM32F3xx_HAL_Driver/Src/stm32f3xx_hal_i2s.c ****     if(((i2ssr & I2S_FLAG_UDR) == I2S_FLAG_UDR) && (__HAL_I2S_GET_IT_SOURCE(hi2s, I2S_IT_ERR) != RE
 970:Drivers/STM32F3xx_HAL_Driver/Src/stm32f3xx_hal_i2s.c ****     {
 971:Drivers/STM32F3xx_HAL_Driver/Src/stm32f3xx_hal_i2s.c ****       /* Disable TXE and ERR interrupt */
 972:Drivers/STM32F3xx_HAL_Driver/Src/stm32f3xx_hal_i2s.c ****       __HAL_I2S_DISABLE_IT(hi2s, (I2S_IT_TXE | I2S_IT_ERR));
 973:Drivers/STM32F3xx_HAL_Driver/Src/stm32f3xx_hal_i2s.c **** 
 974:Drivers/STM32F3xx_HAL_Driver/Src/stm32f3xx_hal_i2s.c ****       /* Set the I2S State ready */
 975:Drivers/STM32F3xx_HAL_Driver/Src/stm32f3xx_hal_i2s.c ****       hi2s->State = HAL_I2S_STATE_READY; 
 976:Drivers/STM32F3xx_HAL_Driver/Src/stm32f3xx_hal_i2s.c **** 
 977:Drivers/STM32F3xx_HAL_Driver/Src/stm32f3xx_hal_i2s.c ****       /* Set the error code and execute error callback*/
 978:Drivers/STM32F3xx_HAL_Driver/Src/stm32f3xx_hal_i2s.c ****       hi2s->ErrorCode |= HAL_I2S_ERROR_UDR;
 979:Drivers/STM32F3xx_HAL_Driver/Src/stm32f3xx_hal_i2s.c ****       HAL_I2S_ErrorCallback(hi2s);
 980:Drivers/STM32F3xx_HAL_Driver/Src/stm32f3xx_hal_i2s.c ****     }
 981:Drivers/STM32F3xx_HAL_Driver/Src/stm32f3xx_hal_i2s.c ****   }
 982:Drivers/STM32F3xx_HAL_Driver/Src/stm32f3xx_hal_i2s.c **** }
 983:Drivers/STM32F3xx_HAL_Driver/Src/stm32f3xx_hal_i2s.c **** 
 984:Drivers/STM32F3xx_HAL_Driver/Src/stm32f3xx_hal_i2s.c **** /**
 985:Drivers/STM32F3xx_HAL_Driver/Src/stm32f3xx_hal_i2s.c ****   * @}
 986:Drivers/STM32F3xx_HAL_Driver/Src/stm32f3xx_hal_i2s.c ****   */
 987:Drivers/STM32F3xx_HAL_Driver/Src/stm32f3xx_hal_i2s.c **** 
 988:Drivers/STM32F3xx_HAL_Driver/Src/stm32f3xx_hal_i2s.c **** /**
 989:Drivers/STM32F3xx_HAL_Driver/Src/stm32f3xx_hal_i2s.c ****   * @}
 990:Drivers/STM32F3xx_HAL_Driver/Src/stm32f3xx_hal_i2s.c ****   */
 991:Drivers/STM32F3xx_HAL_Driver/Src/stm32f3xx_hal_i2s.c **** 
 992:Drivers/STM32F3xx_HAL_Driver/Src/stm32f3xx_hal_i2s.c **** 
 993:Drivers/STM32F3xx_HAL_Driver/Src/stm32f3xx_hal_i2s.c **** 
 994:Drivers/STM32F3xx_HAL_Driver/Src/stm32f3xx_hal_i2s.c **** /** @addtogroup I2S_Exported_Functions I2S Exported Functions
 995:Drivers/STM32F3xx_HAL_Driver/Src/stm32f3xx_hal_i2s.c ****   * @{
 996:Drivers/STM32F3xx_HAL_Driver/Src/stm32f3xx_hal_i2s.c ****   */
 997:Drivers/STM32F3xx_HAL_Driver/Src/stm32f3xx_hal_i2s.c **** 
 998:Drivers/STM32F3xx_HAL_Driver/Src/stm32f3xx_hal_i2s.c **** /** @addtogroup  I2S_Exported_Functions_Group2 IO operation functions
 999:Drivers/STM32F3xx_HAL_Driver/Src/stm32f3xx_hal_i2s.c ****   * @{
ARM GAS  C:\Users\SHINRA~1\AppData\Local\Temp\ccBXzGic.s 			page 19


1000:Drivers/STM32F3xx_HAL_Driver/Src/stm32f3xx_hal_i2s.c ****   */
1001:Drivers/STM32F3xx_HAL_Driver/Src/stm32f3xx_hal_i2s.c **** /**
1002:Drivers/STM32F3xx_HAL_Driver/Src/stm32f3xx_hal_i2s.c ****   * @brief Tx Transfer Half completed callbacks
1003:Drivers/STM32F3xx_HAL_Driver/Src/stm32f3xx_hal_i2s.c ****   * @param  hi2s: pointer to a I2S_HandleTypeDef structure that contains
1004:Drivers/STM32F3xx_HAL_Driver/Src/stm32f3xx_hal_i2s.c ****   *         the configuration information for I2S module
1005:Drivers/STM32F3xx_HAL_Driver/Src/stm32f3xx_hal_i2s.c ****   * @retval None
1006:Drivers/STM32F3xx_HAL_Driver/Src/stm32f3xx_hal_i2s.c ****   */
1007:Drivers/STM32F3xx_HAL_Driver/Src/stm32f3xx_hal_i2s.c ****  __weak void HAL_I2S_TxHalfCpltCallback(I2S_HandleTypeDef *hi2s)
1008:Drivers/STM32F3xx_HAL_Driver/Src/stm32f3xx_hal_i2s.c **** {
1009:Drivers/STM32F3xx_HAL_Driver/Src/stm32f3xx_hal_i2s.c ****   /* Prevent unused argument(s) compilation warning */
1010:Drivers/STM32F3xx_HAL_Driver/Src/stm32f3xx_hal_i2s.c ****   UNUSED(hi2s);
1011:Drivers/STM32F3xx_HAL_Driver/Src/stm32f3xx_hal_i2s.c **** 
1012:Drivers/STM32F3xx_HAL_Driver/Src/stm32f3xx_hal_i2s.c ****   /* NOTE : This function Should not be modified, when the callback is needed,
1013:Drivers/STM32F3xx_HAL_Driver/Src/stm32f3xx_hal_i2s.c ****             the HAL_I2S_TxHalfCpltCallback could be implemented in the user file
1014:Drivers/STM32F3xx_HAL_Driver/Src/stm32f3xx_hal_i2s.c ****    */ 
1015:Drivers/STM32F3xx_HAL_Driver/Src/stm32f3xx_hal_i2s.c **** }
1016:Drivers/STM32F3xx_HAL_Driver/Src/stm32f3xx_hal_i2s.c **** 
1017:Drivers/STM32F3xx_HAL_Driver/Src/stm32f3xx_hal_i2s.c **** /**
1018:Drivers/STM32F3xx_HAL_Driver/Src/stm32f3xx_hal_i2s.c ****   * @brief Tx Transfer completed callbacks
1019:Drivers/STM32F3xx_HAL_Driver/Src/stm32f3xx_hal_i2s.c ****   * @param  hi2s: pointer to a I2S_HandleTypeDef structure that contains
1020:Drivers/STM32F3xx_HAL_Driver/Src/stm32f3xx_hal_i2s.c ****   *         the configuration information for I2S module
1021:Drivers/STM32F3xx_HAL_Driver/Src/stm32f3xx_hal_i2s.c ****   * @retval None
1022:Drivers/STM32F3xx_HAL_Driver/Src/stm32f3xx_hal_i2s.c ****   */
1023:Drivers/STM32F3xx_HAL_Driver/Src/stm32f3xx_hal_i2s.c ****  __weak void HAL_I2S_TxCpltCallback(I2S_HandleTypeDef *hi2s)
1024:Drivers/STM32F3xx_HAL_Driver/Src/stm32f3xx_hal_i2s.c **** {
1025:Drivers/STM32F3xx_HAL_Driver/Src/stm32f3xx_hal_i2s.c ****   /* Prevent unused argument(s) compilation warning */
1026:Drivers/STM32F3xx_HAL_Driver/Src/stm32f3xx_hal_i2s.c ****   UNUSED(hi2s);
1027:Drivers/STM32F3xx_HAL_Driver/Src/stm32f3xx_hal_i2s.c **** 
1028:Drivers/STM32F3xx_HAL_Driver/Src/stm32f3xx_hal_i2s.c ****   /* NOTE : This function Should not be modified, when the callback is needed,
1029:Drivers/STM32F3xx_HAL_Driver/Src/stm32f3xx_hal_i2s.c ****             the HAL_I2S_TxCpltCallback could be implemented in the user file
1030:Drivers/STM32F3xx_HAL_Driver/Src/stm32f3xx_hal_i2s.c ****    */ 
1031:Drivers/STM32F3xx_HAL_Driver/Src/stm32f3xx_hal_i2s.c **** }
1032:Drivers/STM32F3xx_HAL_Driver/Src/stm32f3xx_hal_i2s.c **** 
1033:Drivers/STM32F3xx_HAL_Driver/Src/stm32f3xx_hal_i2s.c **** /**
1034:Drivers/STM32F3xx_HAL_Driver/Src/stm32f3xx_hal_i2s.c ****   * @brief Rx Transfer half completed callbacks
1035:Drivers/STM32F3xx_HAL_Driver/Src/stm32f3xx_hal_i2s.c ****   * @param  hi2s: pointer to a I2S_HandleTypeDef structure that contains
1036:Drivers/STM32F3xx_HAL_Driver/Src/stm32f3xx_hal_i2s.c ****   *         the configuration information for I2S module
1037:Drivers/STM32F3xx_HAL_Driver/Src/stm32f3xx_hal_i2s.c ****   * @retval None
1038:Drivers/STM32F3xx_HAL_Driver/Src/stm32f3xx_hal_i2s.c ****   */
1039:Drivers/STM32F3xx_HAL_Driver/Src/stm32f3xx_hal_i2s.c **** __weak void HAL_I2S_RxHalfCpltCallback(I2S_HandleTypeDef *hi2s)
1040:Drivers/STM32F3xx_HAL_Driver/Src/stm32f3xx_hal_i2s.c **** {
1041:Drivers/STM32F3xx_HAL_Driver/Src/stm32f3xx_hal_i2s.c ****   /* Prevent unused argument(s) compilation warning */
1042:Drivers/STM32F3xx_HAL_Driver/Src/stm32f3xx_hal_i2s.c ****   UNUSED(hi2s);
1043:Drivers/STM32F3xx_HAL_Driver/Src/stm32f3xx_hal_i2s.c **** 
1044:Drivers/STM32F3xx_HAL_Driver/Src/stm32f3xx_hal_i2s.c ****   /* NOTE : This function Should not be modified, when the callback is needed,
1045:Drivers/STM32F3xx_HAL_Driver/Src/stm32f3xx_hal_i2s.c ****             the HAL_I2S_RxCpltCallback could be implemented in the user file
1046:Drivers/STM32F3xx_HAL_Driver/Src/stm32f3xx_hal_i2s.c ****    */
1047:Drivers/STM32F3xx_HAL_Driver/Src/stm32f3xx_hal_i2s.c **** }
1048:Drivers/STM32F3xx_HAL_Driver/Src/stm32f3xx_hal_i2s.c **** 
1049:Drivers/STM32F3xx_HAL_Driver/Src/stm32f3xx_hal_i2s.c **** /**
1050:Drivers/STM32F3xx_HAL_Driver/Src/stm32f3xx_hal_i2s.c ****   * @brief Rx Transfer completed callbacks
1051:Drivers/STM32F3xx_HAL_Driver/Src/stm32f3xx_hal_i2s.c ****   * @param  hi2s: pointer to a I2S_HandleTypeDef structure that contains
1052:Drivers/STM32F3xx_HAL_Driver/Src/stm32f3xx_hal_i2s.c ****   *         the configuration information for I2S module
1053:Drivers/STM32F3xx_HAL_Driver/Src/stm32f3xx_hal_i2s.c ****   * @retval None
1054:Drivers/STM32F3xx_HAL_Driver/Src/stm32f3xx_hal_i2s.c ****   */
1055:Drivers/STM32F3xx_HAL_Driver/Src/stm32f3xx_hal_i2s.c **** __weak void HAL_I2S_RxCpltCallback(I2S_HandleTypeDef *hi2s)
1056:Drivers/STM32F3xx_HAL_Driver/Src/stm32f3xx_hal_i2s.c **** {
ARM GAS  C:\Users\SHINRA~1\AppData\Local\Temp\ccBXzGic.s 			page 20


1057:Drivers/STM32F3xx_HAL_Driver/Src/stm32f3xx_hal_i2s.c ****   /* Prevent unused argument(s) compilation warning */
1058:Drivers/STM32F3xx_HAL_Driver/Src/stm32f3xx_hal_i2s.c ****   UNUSED(hi2s);
1059:Drivers/STM32F3xx_HAL_Driver/Src/stm32f3xx_hal_i2s.c **** 
1060:Drivers/STM32F3xx_HAL_Driver/Src/stm32f3xx_hal_i2s.c ****   /* NOTE : This function Should not be modified, when the callback is needed,
1061:Drivers/STM32F3xx_HAL_Driver/Src/stm32f3xx_hal_i2s.c ****             the HAL_I2S_RxCpltCallback could be implemented in the user file
1062:Drivers/STM32F3xx_HAL_Driver/Src/stm32f3xx_hal_i2s.c ****    */
1063:Drivers/STM32F3xx_HAL_Driver/Src/stm32f3xx_hal_i2s.c **** }
1064:Drivers/STM32F3xx_HAL_Driver/Src/stm32f3xx_hal_i2s.c **** 
1065:Drivers/STM32F3xx_HAL_Driver/Src/stm32f3xx_hal_i2s.c **** /**
1066:Drivers/STM32F3xx_HAL_Driver/Src/stm32f3xx_hal_i2s.c ****   * @brief I2S error callbacks
1067:Drivers/STM32F3xx_HAL_Driver/Src/stm32f3xx_hal_i2s.c ****   * @param  hi2s: pointer to a I2S_HandleTypeDef structure that contains
1068:Drivers/STM32F3xx_HAL_Driver/Src/stm32f3xx_hal_i2s.c ****   *         the configuration information for I2S module
1069:Drivers/STM32F3xx_HAL_Driver/Src/stm32f3xx_hal_i2s.c ****   * @retval None
1070:Drivers/STM32F3xx_HAL_Driver/Src/stm32f3xx_hal_i2s.c ****   */
1071:Drivers/STM32F3xx_HAL_Driver/Src/stm32f3xx_hal_i2s.c ****  __weak void HAL_I2S_ErrorCallback(I2S_HandleTypeDef *hi2s)
1072:Drivers/STM32F3xx_HAL_Driver/Src/stm32f3xx_hal_i2s.c **** {
1073:Drivers/STM32F3xx_HAL_Driver/Src/stm32f3xx_hal_i2s.c ****   /* Prevent unused argument(s) compilation warning */
1074:Drivers/STM32F3xx_HAL_Driver/Src/stm32f3xx_hal_i2s.c ****   UNUSED(hi2s);
1075:Drivers/STM32F3xx_HAL_Driver/Src/stm32f3xx_hal_i2s.c **** 
1076:Drivers/STM32F3xx_HAL_Driver/Src/stm32f3xx_hal_i2s.c ****   /* NOTE : This function Should not be modified, when the callback is needed,
1077:Drivers/STM32F3xx_HAL_Driver/Src/stm32f3xx_hal_i2s.c ****             the HAL_I2S_ErrorCallback could be implemented in the user file
1078:Drivers/STM32F3xx_HAL_Driver/Src/stm32f3xx_hal_i2s.c ****    */ 
1079:Drivers/STM32F3xx_HAL_Driver/Src/stm32f3xx_hal_i2s.c **** }
1080:Drivers/STM32F3xx_HAL_Driver/Src/stm32f3xx_hal_i2s.c **** 
1081:Drivers/STM32F3xx_HAL_Driver/Src/stm32f3xx_hal_i2s.c **** /**
1082:Drivers/STM32F3xx_HAL_Driver/Src/stm32f3xx_hal_i2s.c ****   * @}
1083:Drivers/STM32F3xx_HAL_Driver/Src/stm32f3xx_hal_i2s.c ****   */
1084:Drivers/STM32F3xx_HAL_Driver/Src/stm32f3xx_hal_i2s.c **** 
1085:Drivers/STM32F3xx_HAL_Driver/Src/stm32f3xx_hal_i2s.c **** /** @defgroup I2S_Exported_Functions_Group3 Peripheral State and Errors functions 
1086:Drivers/STM32F3xx_HAL_Driver/Src/stm32f3xx_hal_i2s.c ****   *  @brief   Peripheral State functions 
1087:Drivers/STM32F3xx_HAL_Driver/Src/stm32f3xx_hal_i2s.c ****   *
1088:Drivers/STM32F3xx_HAL_Driver/Src/stm32f3xx_hal_i2s.c **** @verbatim   
1089:Drivers/STM32F3xx_HAL_Driver/Src/stm32f3xx_hal_i2s.c ****  ===============================================================================
1090:Drivers/STM32F3xx_HAL_Driver/Src/stm32f3xx_hal_i2s.c ****                       ##### Peripheral State and Errors functions #####
1091:Drivers/STM32F3xx_HAL_Driver/Src/stm32f3xx_hal_i2s.c ****  ===============================================================================  
1092:Drivers/STM32F3xx_HAL_Driver/Src/stm32f3xx_hal_i2s.c ****     [..]
1093:Drivers/STM32F3xx_HAL_Driver/Src/stm32f3xx_hal_i2s.c ****     This subsection permits to get in run-time the status of the peripheral 
1094:Drivers/STM32F3xx_HAL_Driver/Src/stm32f3xx_hal_i2s.c ****     and the data flow.
1095:Drivers/STM32F3xx_HAL_Driver/Src/stm32f3xx_hal_i2s.c **** 
1096:Drivers/STM32F3xx_HAL_Driver/Src/stm32f3xx_hal_i2s.c **** @endverbatim
1097:Drivers/STM32F3xx_HAL_Driver/Src/stm32f3xx_hal_i2s.c ****   * @{
1098:Drivers/STM32F3xx_HAL_Driver/Src/stm32f3xx_hal_i2s.c ****   */
1099:Drivers/STM32F3xx_HAL_Driver/Src/stm32f3xx_hal_i2s.c **** 
1100:Drivers/STM32F3xx_HAL_Driver/Src/stm32f3xx_hal_i2s.c **** /**
1101:Drivers/STM32F3xx_HAL_Driver/Src/stm32f3xx_hal_i2s.c ****   * @brief  Return the I2S state
1102:Drivers/STM32F3xx_HAL_Driver/Src/stm32f3xx_hal_i2s.c ****   * @param  hi2s: pointer to a I2S_HandleTypeDef structure that contains
1103:Drivers/STM32F3xx_HAL_Driver/Src/stm32f3xx_hal_i2s.c ****   *         the configuration information for I2S module
1104:Drivers/STM32F3xx_HAL_Driver/Src/stm32f3xx_hal_i2s.c ****   * @retval HAL state
1105:Drivers/STM32F3xx_HAL_Driver/Src/stm32f3xx_hal_i2s.c ****   */
1106:Drivers/STM32F3xx_HAL_Driver/Src/stm32f3xx_hal_i2s.c **** HAL_I2S_StateTypeDef HAL_I2S_GetState(I2S_HandleTypeDef *hi2s)
1107:Drivers/STM32F3xx_HAL_Driver/Src/stm32f3xx_hal_i2s.c **** {
1108:Drivers/STM32F3xx_HAL_Driver/Src/stm32f3xx_hal_i2s.c ****   return hi2s->State;
1109:Drivers/STM32F3xx_HAL_Driver/Src/stm32f3xx_hal_i2s.c **** }
1110:Drivers/STM32F3xx_HAL_Driver/Src/stm32f3xx_hal_i2s.c **** 
1111:Drivers/STM32F3xx_HAL_Driver/Src/stm32f3xx_hal_i2s.c **** /**
1112:Drivers/STM32F3xx_HAL_Driver/Src/stm32f3xx_hal_i2s.c ****   * @brief  Return the I2S error code
1113:Drivers/STM32F3xx_HAL_Driver/Src/stm32f3xx_hal_i2s.c ****   * @param  hi2s: pointer to a I2S_HandleTypeDef structure that contains
ARM GAS  C:\Users\SHINRA~1\AppData\Local\Temp\ccBXzGic.s 			page 21


1114:Drivers/STM32F3xx_HAL_Driver/Src/stm32f3xx_hal_i2s.c ****   *         the configuration information for I2S module
1115:Drivers/STM32F3xx_HAL_Driver/Src/stm32f3xx_hal_i2s.c ****   * @retval I2S Error Code
1116:Drivers/STM32F3xx_HAL_Driver/Src/stm32f3xx_hal_i2s.c ****   */
1117:Drivers/STM32F3xx_HAL_Driver/Src/stm32f3xx_hal_i2s.c **** uint32_t HAL_I2S_GetError(I2S_HandleTypeDef *hi2s)
1118:Drivers/STM32F3xx_HAL_Driver/Src/stm32f3xx_hal_i2s.c **** {
1119:Drivers/STM32F3xx_HAL_Driver/Src/stm32f3xx_hal_i2s.c ****   return hi2s->ErrorCode;
1120:Drivers/STM32F3xx_HAL_Driver/Src/stm32f3xx_hal_i2s.c **** }
1121:Drivers/STM32F3xx_HAL_Driver/Src/stm32f3xx_hal_i2s.c **** /**
1122:Drivers/STM32F3xx_HAL_Driver/Src/stm32f3xx_hal_i2s.c ****   * @}
1123:Drivers/STM32F3xx_HAL_Driver/Src/stm32f3xx_hal_i2s.c ****   */
1124:Drivers/STM32F3xx_HAL_Driver/Src/stm32f3xx_hal_i2s.c **** 
1125:Drivers/STM32F3xx_HAL_Driver/Src/stm32f3xx_hal_i2s.c **** /**
1126:Drivers/STM32F3xx_HAL_Driver/Src/stm32f3xx_hal_i2s.c ****   * @}
1127:Drivers/STM32F3xx_HAL_Driver/Src/stm32f3xx_hal_i2s.c ****   */
1128:Drivers/STM32F3xx_HAL_Driver/Src/stm32f3xx_hal_i2s.c **** 
1129:Drivers/STM32F3xx_HAL_Driver/Src/stm32f3xx_hal_i2s.c **** /** @addtogroup I2S_Private_Functions I2S Private Functions
1130:Drivers/STM32F3xx_HAL_Driver/Src/stm32f3xx_hal_i2s.c ****   * @{
1131:Drivers/STM32F3xx_HAL_Driver/Src/stm32f3xx_hal_i2s.c ****   */
1132:Drivers/STM32F3xx_HAL_Driver/Src/stm32f3xx_hal_i2s.c **** /**
1133:Drivers/STM32F3xx_HAL_Driver/Src/stm32f3xx_hal_i2s.c ****   * @brief DMA I2S transmit process complete callback 
1134:Drivers/STM32F3xx_HAL_Driver/Src/stm32f3xx_hal_i2s.c ****   * @param  hdma pointer to a DMA_HandleTypeDef structure that contains
1135:Drivers/STM32F3xx_HAL_Driver/Src/stm32f3xx_hal_i2s.c ****   *                the configuration information for the specified DMA module.
1136:Drivers/STM32F3xx_HAL_Driver/Src/stm32f3xx_hal_i2s.c ****   * @retval None
1137:Drivers/STM32F3xx_HAL_Driver/Src/stm32f3xx_hal_i2s.c ****   */
1138:Drivers/STM32F3xx_HAL_Driver/Src/stm32f3xx_hal_i2s.c **** static void I2S_DMATxCplt(DMA_HandleTypeDef *hdma)
1139:Drivers/STM32F3xx_HAL_Driver/Src/stm32f3xx_hal_i2s.c **** {
1140:Drivers/STM32F3xx_HAL_Driver/Src/stm32f3xx_hal_i2s.c ****   I2S_HandleTypeDef* hi2s = ( I2S_HandleTypeDef* )((DMA_HandleTypeDef* )hdma)->Parent;
1141:Drivers/STM32F3xx_HAL_Driver/Src/stm32f3xx_hal_i2s.c ****   
1142:Drivers/STM32F3xx_HAL_Driver/Src/stm32f3xx_hal_i2s.c ****   if((hdma->Instance->CCR & DMA_CCR_CIRC) == 0U)
1143:Drivers/STM32F3xx_HAL_Driver/Src/stm32f3xx_hal_i2s.c ****   {
1144:Drivers/STM32F3xx_HAL_Driver/Src/stm32f3xx_hal_i2s.c ****     /* Disable Tx DMA Request */
1145:Drivers/STM32F3xx_HAL_Driver/Src/stm32f3xx_hal_i2s.c ****     hi2s->Instance->CR2 &= (uint32_t)(~SPI_CR2_TXDMAEN);
1146:Drivers/STM32F3xx_HAL_Driver/Src/stm32f3xx_hal_i2s.c ****   
1147:Drivers/STM32F3xx_HAL_Driver/Src/stm32f3xx_hal_i2s.c ****     hi2s->TxXferCount = 0U;
1148:Drivers/STM32F3xx_HAL_Driver/Src/stm32f3xx_hal_i2s.c ****     hi2s->State = HAL_I2S_STATE_READY;
1149:Drivers/STM32F3xx_HAL_Driver/Src/stm32f3xx_hal_i2s.c ****   }
1150:Drivers/STM32F3xx_HAL_Driver/Src/stm32f3xx_hal_i2s.c ****   HAL_I2S_TxCpltCallback(hi2s);
1151:Drivers/STM32F3xx_HAL_Driver/Src/stm32f3xx_hal_i2s.c **** }
1152:Drivers/STM32F3xx_HAL_Driver/Src/stm32f3xx_hal_i2s.c **** 
1153:Drivers/STM32F3xx_HAL_Driver/Src/stm32f3xx_hal_i2s.c **** /**
1154:Drivers/STM32F3xx_HAL_Driver/Src/stm32f3xx_hal_i2s.c ****   * @brief DMA I2S transmit process half complete callback 
1155:Drivers/STM32F3xx_HAL_Driver/Src/stm32f3xx_hal_i2s.c ****   * @param  hdma pointer to a DMA_HandleTypeDef structure that contains
1156:Drivers/STM32F3xx_HAL_Driver/Src/stm32f3xx_hal_i2s.c ****   *                the configuration information for the specified DMA module.
1157:Drivers/STM32F3xx_HAL_Driver/Src/stm32f3xx_hal_i2s.c ****   * @retval None
1158:Drivers/STM32F3xx_HAL_Driver/Src/stm32f3xx_hal_i2s.c ****   */
1159:Drivers/STM32F3xx_HAL_Driver/Src/stm32f3xx_hal_i2s.c **** static void I2S_DMATxHalfCplt(DMA_HandleTypeDef *hdma)
1160:Drivers/STM32F3xx_HAL_Driver/Src/stm32f3xx_hal_i2s.c **** {
1161:Drivers/STM32F3xx_HAL_Driver/Src/stm32f3xx_hal_i2s.c ****   I2S_HandleTypeDef* hi2s = (I2S_HandleTypeDef*)((DMA_HandleTypeDef*)hdma)->Parent;
1162:Drivers/STM32F3xx_HAL_Driver/Src/stm32f3xx_hal_i2s.c **** 
1163:Drivers/STM32F3xx_HAL_Driver/Src/stm32f3xx_hal_i2s.c ****   HAL_I2S_TxHalfCpltCallback(hi2s);
1164:Drivers/STM32F3xx_HAL_Driver/Src/stm32f3xx_hal_i2s.c **** }
1165:Drivers/STM32F3xx_HAL_Driver/Src/stm32f3xx_hal_i2s.c **** 
1166:Drivers/STM32F3xx_HAL_Driver/Src/stm32f3xx_hal_i2s.c **** /**
1167:Drivers/STM32F3xx_HAL_Driver/Src/stm32f3xx_hal_i2s.c ****   * @brief DMA I2S receive process complete callback 
1168:Drivers/STM32F3xx_HAL_Driver/Src/stm32f3xx_hal_i2s.c ****   * @param  hdma pointer to a DMA_HandleTypeDef structure that contains
1169:Drivers/STM32F3xx_HAL_Driver/Src/stm32f3xx_hal_i2s.c ****   *                the configuration information for the specified DMA module.
1170:Drivers/STM32F3xx_HAL_Driver/Src/stm32f3xx_hal_i2s.c ****   * @retval None
ARM GAS  C:\Users\SHINRA~1\AppData\Local\Temp\ccBXzGic.s 			page 22


1171:Drivers/STM32F3xx_HAL_Driver/Src/stm32f3xx_hal_i2s.c ****   */
1172:Drivers/STM32F3xx_HAL_Driver/Src/stm32f3xx_hal_i2s.c **** static void I2S_DMARxCplt(DMA_HandleTypeDef *hdma)
1173:Drivers/STM32F3xx_HAL_Driver/Src/stm32f3xx_hal_i2s.c **** {
1174:Drivers/STM32F3xx_HAL_Driver/Src/stm32f3xx_hal_i2s.c ****   I2S_HandleTypeDef* hi2s = ( I2S_HandleTypeDef* )((DMA_HandleTypeDef* )hdma)->Parent;
1175:Drivers/STM32F3xx_HAL_Driver/Src/stm32f3xx_hal_i2s.c **** 
1176:Drivers/STM32F3xx_HAL_Driver/Src/stm32f3xx_hal_i2s.c ****   if((hdma->Instance->CCR & DMA_CCR_CIRC) == 0U)
1177:Drivers/STM32F3xx_HAL_Driver/Src/stm32f3xx_hal_i2s.c ****   {
1178:Drivers/STM32F3xx_HAL_Driver/Src/stm32f3xx_hal_i2s.c ****     /* Disable Rx DMA Request */
1179:Drivers/STM32F3xx_HAL_Driver/Src/stm32f3xx_hal_i2s.c ****     hi2s->Instance->CR2 &= (uint32_t)(~SPI_CR2_RXDMAEN);
1180:Drivers/STM32F3xx_HAL_Driver/Src/stm32f3xx_hal_i2s.c ****     hi2s->RxXferCount = 0U;
1181:Drivers/STM32F3xx_HAL_Driver/Src/stm32f3xx_hal_i2s.c ****     hi2s->State = HAL_I2S_STATE_READY;
1182:Drivers/STM32F3xx_HAL_Driver/Src/stm32f3xx_hal_i2s.c ****   }
1183:Drivers/STM32F3xx_HAL_Driver/Src/stm32f3xx_hal_i2s.c ****   HAL_I2S_RxCpltCallback(hi2s); 
1184:Drivers/STM32F3xx_HAL_Driver/Src/stm32f3xx_hal_i2s.c **** }
1185:Drivers/STM32F3xx_HAL_Driver/Src/stm32f3xx_hal_i2s.c **** 
1186:Drivers/STM32F3xx_HAL_Driver/Src/stm32f3xx_hal_i2s.c **** /**
1187:Drivers/STM32F3xx_HAL_Driver/Src/stm32f3xx_hal_i2s.c ****   * @brief DMA I2S receive process half complete callback 
1188:Drivers/STM32F3xx_HAL_Driver/Src/stm32f3xx_hal_i2s.c ****   * @param  hdma pointer to a DMA_HandleTypeDef structure that contains
1189:Drivers/STM32F3xx_HAL_Driver/Src/stm32f3xx_hal_i2s.c ****   *                the configuration information for the specified DMA module.
1190:Drivers/STM32F3xx_HAL_Driver/Src/stm32f3xx_hal_i2s.c ****   * @retval None
1191:Drivers/STM32F3xx_HAL_Driver/Src/stm32f3xx_hal_i2s.c ****   */
1192:Drivers/STM32F3xx_HAL_Driver/Src/stm32f3xx_hal_i2s.c **** static void I2S_DMARxHalfCplt(DMA_HandleTypeDef *hdma)
1193:Drivers/STM32F3xx_HAL_Driver/Src/stm32f3xx_hal_i2s.c **** {
1194:Drivers/STM32F3xx_HAL_Driver/Src/stm32f3xx_hal_i2s.c ****   I2S_HandleTypeDef* hi2s = (I2S_HandleTypeDef*)((DMA_HandleTypeDef*)hdma)->Parent;
1195:Drivers/STM32F3xx_HAL_Driver/Src/stm32f3xx_hal_i2s.c **** 
1196:Drivers/STM32F3xx_HAL_Driver/Src/stm32f3xx_hal_i2s.c ****   HAL_I2S_RxHalfCpltCallback(hi2s); 
1197:Drivers/STM32F3xx_HAL_Driver/Src/stm32f3xx_hal_i2s.c **** }
1198:Drivers/STM32F3xx_HAL_Driver/Src/stm32f3xx_hal_i2s.c **** 
1199:Drivers/STM32F3xx_HAL_Driver/Src/stm32f3xx_hal_i2s.c **** /**
1200:Drivers/STM32F3xx_HAL_Driver/Src/stm32f3xx_hal_i2s.c ****   * @brief DMA I2S communication error callback 
1201:Drivers/STM32F3xx_HAL_Driver/Src/stm32f3xx_hal_i2s.c ****   * @param  hdma pointer to a DMA_HandleTypeDef structure that contains
1202:Drivers/STM32F3xx_HAL_Driver/Src/stm32f3xx_hal_i2s.c ****   *                the configuration information for the specified DMA module.
1203:Drivers/STM32F3xx_HAL_Driver/Src/stm32f3xx_hal_i2s.c ****   * @retval None
1204:Drivers/STM32F3xx_HAL_Driver/Src/stm32f3xx_hal_i2s.c ****   */
1205:Drivers/STM32F3xx_HAL_Driver/Src/stm32f3xx_hal_i2s.c **** static void I2S_DMAError(DMA_HandleTypeDef *hdma)
1206:Drivers/STM32F3xx_HAL_Driver/Src/stm32f3xx_hal_i2s.c **** {
1207:Drivers/STM32F3xx_HAL_Driver/Src/stm32f3xx_hal_i2s.c ****   I2S_HandleTypeDef* hi2s = ( I2S_HandleTypeDef* )((DMA_HandleTypeDef* )hdma)->Parent;
1208:Drivers/STM32F3xx_HAL_Driver/Src/stm32f3xx_hal_i2s.c ****   
1209:Drivers/STM32F3xx_HAL_Driver/Src/stm32f3xx_hal_i2s.c ****   /* Disable Rx and Tx DMA Request */
1210:Drivers/STM32F3xx_HAL_Driver/Src/stm32f3xx_hal_i2s.c ****   hi2s->Instance->CR2 &= (uint32_t)(~(SPI_CR2_RXDMAEN | SPI_CR2_TXDMAEN));
1211:Drivers/STM32F3xx_HAL_Driver/Src/stm32f3xx_hal_i2s.c ****   hi2s->TxXferCount = 0U;
1212:Drivers/STM32F3xx_HAL_Driver/Src/stm32f3xx_hal_i2s.c ****   hi2s->RxXferCount = 0U;
1213:Drivers/STM32F3xx_HAL_Driver/Src/stm32f3xx_hal_i2s.c ****   
1214:Drivers/STM32F3xx_HAL_Driver/Src/stm32f3xx_hal_i2s.c ****   hi2s->State= HAL_I2S_STATE_READY;
1215:Drivers/STM32F3xx_HAL_Driver/Src/stm32f3xx_hal_i2s.c **** 
1216:Drivers/STM32F3xx_HAL_Driver/Src/stm32f3xx_hal_i2s.c ****   /* Set the error code and execute error callback*/
1217:Drivers/STM32F3xx_HAL_Driver/Src/stm32f3xx_hal_i2s.c ****   hi2s->ErrorCode |= HAL_I2S_ERROR_DMA;
1218:Drivers/STM32F3xx_HAL_Driver/Src/stm32f3xx_hal_i2s.c ****   HAL_I2S_ErrorCallback(hi2s);
1219:Drivers/STM32F3xx_HAL_Driver/Src/stm32f3xx_hal_i2s.c **** }
1220:Drivers/STM32F3xx_HAL_Driver/Src/stm32f3xx_hal_i2s.c **** 
1221:Drivers/STM32F3xx_HAL_Driver/Src/stm32f3xx_hal_i2s.c **** /**
1222:Drivers/STM32F3xx_HAL_Driver/Src/stm32f3xx_hal_i2s.c ****   * @brief Transmit an amount of data in non-blocking mode with Interrupt
1223:Drivers/STM32F3xx_HAL_Driver/Src/stm32f3xx_hal_i2s.c ****   * @param  hi2s: pointer to a I2S_HandleTypeDef structure that contains
1224:Drivers/STM32F3xx_HAL_Driver/Src/stm32f3xx_hal_i2s.c ****   *         the configuration information for I2S module
1225:Drivers/STM32F3xx_HAL_Driver/Src/stm32f3xx_hal_i2s.c ****   * @retval None
1226:Drivers/STM32F3xx_HAL_Driver/Src/stm32f3xx_hal_i2s.c ****   */
1227:Drivers/STM32F3xx_HAL_Driver/Src/stm32f3xx_hal_i2s.c **** static void I2S_Transmit_IT(I2S_HandleTypeDef *hi2s)
ARM GAS  C:\Users\SHINRA~1\AppData\Local\Temp\ccBXzGic.s 			page 23


1228:Drivers/STM32F3xx_HAL_Driver/Src/stm32f3xx_hal_i2s.c **** {
1229:Drivers/STM32F3xx_HAL_Driver/Src/stm32f3xx_hal_i2s.c ****   /* Transmit data */
1230:Drivers/STM32F3xx_HAL_Driver/Src/stm32f3xx_hal_i2s.c ****   hi2s->Instance->DR = (*hi2s->pTxBuffPtr++);
1231:Drivers/STM32F3xx_HAL_Driver/Src/stm32f3xx_hal_i2s.c ****   hi2s->TxXferCount--;
1232:Drivers/STM32F3xx_HAL_Driver/Src/stm32f3xx_hal_i2s.c **** 
1233:Drivers/STM32F3xx_HAL_Driver/Src/stm32f3xx_hal_i2s.c ****   if(hi2s->TxXferCount == 0U)
1234:Drivers/STM32F3xx_HAL_Driver/Src/stm32f3xx_hal_i2s.c ****   {
1235:Drivers/STM32F3xx_HAL_Driver/Src/stm32f3xx_hal_i2s.c ****     /* Disable TXE and ERR interrupt */
1236:Drivers/STM32F3xx_HAL_Driver/Src/stm32f3xx_hal_i2s.c ****     __HAL_I2S_DISABLE_IT(hi2s, (I2S_IT_TXE | I2S_IT_ERR));
1237:Drivers/STM32F3xx_HAL_Driver/Src/stm32f3xx_hal_i2s.c **** 
1238:Drivers/STM32F3xx_HAL_Driver/Src/stm32f3xx_hal_i2s.c ****     hi2s->State = HAL_I2S_STATE_READY;
1239:Drivers/STM32F3xx_HAL_Driver/Src/stm32f3xx_hal_i2s.c ****     HAL_I2S_TxCpltCallback(hi2s);
1240:Drivers/STM32F3xx_HAL_Driver/Src/stm32f3xx_hal_i2s.c ****   }
1241:Drivers/STM32F3xx_HAL_Driver/Src/stm32f3xx_hal_i2s.c **** }
1242:Drivers/STM32F3xx_HAL_Driver/Src/stm32f3xx_hal_i2s.c **** 
1243:Drivers/STM32F3xx_HAL_Driver/Src/stm32f3xx_hal_i2s.c **** /**
1244:Drivers/STM32F3xx_HAL_Driver/Src/stm32f3xx_hal_i2s.c ****   * @brief Receive an amount of data in non-blocking mode with Interrupt
1245:Drivers/STM32F3xx_HAL_Driver/Src/stm32f3xx_hal_i2s.c ****   * @param hi2s: I2S handle
1246:Drivers/STM32F3xx_HAL_Driver/Src/stm32f3xx_hal_i2s.c ****   * @retval None
1247:Drivers/STM32F3xx_HAL_Driver/Src/stm32f3xx_hal_i2s.c ****   */
1248:Drivers/STM32F3xx_HAL_Driver/Src/stm32f3xx_hal_i2s.c **** static void I2S_Receive_IT(I2S_HandleTypeDef *hi2s)
1249:Drivers/STM32F3xx_HAL_Driver/Src/stm32f3xx_hal_i2s.c **** {
1250:Drivers/STM32F3xx_HAL_Driver/Src/stm32f3xx_hal_i2s.c ****   /* Receive data */    
1251:Drivers/STM32F3xx_HAL_Driver/Src/stm32f3xx_hal_i2s.c ****   (*hi2s->pRxBuffPtr++) = hi2s->Instance->DR;
1252:Drivers/STM32F3xx_HAL_Driver/Src/stm32f3xx_hal_i2s.c ****   hi2s->RxXferCount--;
1253:Drivers/STM32F3xx_HAL_Driver/Src/stm32f3xx_hal_i2s.c **** 
1254:Drivers/STM32F3xx_HAL_Driver/Src/stm32f3xx_hal_i2s.c ****   if(hi2s->RxXferCount == 0U)
1255:Drivers/STM32F3xx_HAL_Driver/Src/stm32f3xx_hal_i2s.c ****   {
1256:Drivers/STM32F3xx_HAL_Driver/Src/stm32f3xx_hal_i2s.c ****     /* Disable RXNE and ERR interrupt */
1257:Drivers/STM32F3xx_HAL_Driver/Src/stm32f3xx_hal_i2s.c ****     __HAL_I2S_DISABLE_IT(hi2s, (I2S_IT_RXNE | I2S_IT_ERR));
1258:Drivers/STM32F3xx_HAL_Driver/Src/stm32f3xx_hal_i2s.c **** 
1259:Drivers/STM32F3xx_HAL_Driver/Src/stm32f3xx_hal_i2s.c ****     hi2s->State = HAL_I2S_STATE_READY;     
1260:Drivers/STM32F3xx_HAL_Driver/Src/stm32f3xx_hal_i2s.c ****     HAL_I2S_RxCpltCallback(hi2s); 
1261:Drivers/STM32F3xx_HAL_Driver/Src/stm32f3xx_hal_i2s.c ****   }
1262:Drivers/STM32F3xx_HAL_Driver/Src/stm32f3xx_hal_i2s.c **** }
1263:Drivers/STM32F3xx_HAL_Driver/Src/stm32f3xx_hal_i2s.c **** 
1264:Drivers/STM32F3xx_HAL_Driver/Src/stm32f3xx_hal_i2s.c **** /**
1265:Drivers/STM32F3xx_HAL_Driver/Src/stm32f3xx_hal_i2s.c ****   * @brief This function handles I2S Communication Timeout.
1266:Drivers/STM32F3xx_HAL_Driver/Src/stm32f3xx_hal_i2s.c ****   * @param  hi2s: pointer to a I2S_HandleTypeDef structure that contains
1267:Drivers/STM32F3xx_HAL_Driver/Src/stm32f3xx_hal_i2s.c ****   *         the configuration information for I2S module
1268:Drivers/STM32F3xx_HAL_Driver/Src/stm32f3xx_hal_i2s.c ****   * @param Flag Flag checked
1269:Drivers/STM32F3xx_HAL_Driver/Src/stm32f3xx_hal_i2s.c ****   * @param State Value of the flag expected
1270:Drivers/STM32F3xx_HAL_Driver/Src/stm32f3xx_hal_i2s.c ****   * @param Timeout Duration of the timeout
1271:Drivers/STM32F3xx_HAL_Driver/Src/stm32f3xx_hal_i2s.c ****   * @retval HAL status
1272:Drivers/STM32F3xx_HAL_Driver/Src/stm32f3xx_hal_i2s.c ****   */
1273:Drivers/STM32F3xx_HAL_Driver/Src/stm32f3xx_hal_i2s.c **** static HAL_StatusTypeDef I2S_WaitFlagStateUntilTimeout(I2S_HandleTypeDef *hi2s, uint32_t Flag, uint
1274:Drivers/STM32F3xx_HAL_Driver/Src/stm32f3xx_hal_i2s.c **** {
  29              		.loc 1 1274 1 view -0
  30              		.cfi_startproc
  31              		@ args = 0, pretend = 0, frame = 0
  32              		@ frame_needed = 0, uses_anonymous_args = 0
  33              		.loc 1 1274 1 is_stmt 0 view .LVU1
  34 0000 2DE9F041 		push	{r4, r5, r6, r7, r8, lr}
  35              	.LCFI0:
  36              		.cfi_def_cfa_offset 24
  37              		.cfi_offset 4, -24
  38              		.cfi_offset 5, -20
ARM GAS  C:\Users\SHINRA~1\AppData\Local\Temp\ccBXzGic.s 			page 24


  39              		.cfi_offset 6, -16
  40              		.cfi_offset 7, -12
  41              		.cfi_offset 8, -8
  42              		.cfi_offset 14, -4
  43 0004 0546     		mov	r5, r0
  44 0006 0E46     		mov	r6, r1
  45 0008 9046     		mov	r8, r2
  46 000a 1C46     		mov	r4, r3
1275:Drivers/STM32F3xx_HAL_Driver/Src/stm32f3xx_hal_i2s.c ****   uint32_t tickstart = HAL_GetTick();
  47              		.loc 1 1275 3 is_stmt 1 view .LVU2
  48              		.loc 1 1275 24 is_stmt 0 view .LVU3
  49 000c FFF7FEFF 		bl	HAL_GetTick
  50              	.LVL1:
  51              		.loc 1 1275 24 view .LVU4
  52 0010 0746     		mov	r7, r0
  53              	.LVL2:
1276:Drivers/STM32F3xx_HAL_Driver/Src/stm32f3xx_hal_i2s.c ****   
1277:Drivers/STM32F3xx_HAL_Driver/Src/stm32f3xx_hal_i2s.c ****   /* Wait until flag is set */
1278:Drivers/STM32F3xx_HAL_Driver/Src/stm32f3xx_hal_i2s.c ****   if(State == RESET)
  54              		.loc 1 1278 3 is_stmt 1 view .LVU5
  55              		.loc 1 1278 5 is_stmt 0 view .LVU6
  56 0012 B8F1000F 		cmp	r8, #0
  57 0016 15D0     		beq	.L4
  58              	.LVL3:
  59              	.L8:
1279:Drivers/STM32F3xx_HAL_Driver/Src/stm32f3xx_hal_i2s.c ****   {
1280:Drivers/STM32F3xx_HAL_Driver/Src/stm32f3xx_hal_i2s.c ****     while(__HAL_I2S_GET_FLAG(hi2s, Flag) == RESET)
1281:Drivers/STM32F3xx_HAL_Driver/Src/stm32f3xx_hal_i2s.c ****     {
1282:Drivers/STM32F3xx_HAL_Driver/Src/stm32f3xx_hal_i2s.c ****       if(Timeout != HAL_MAX_DELAY)
1283:Drivers/STM32F3xx_HAL_Driver/Src/stm32f3xx_hal_i2s.c ****       {
1284:Drivers/STM32F3xx_HAL_Driver/Src/stm32f3xx_hal_i2s.c ****         if((Timeout == 0U) || ((HAL_GetTick() - tickstart) > Timeout))
1285:Drivers/STM32F3xx_HAL_Driver/Src/stm32f3xx_hal_i2s.c ****         {
1286:Drivers/STM32F3xx_HAL_Driver/Src/stm32f3xx_hal_i2s.c ****           /* Set the I2S State ready */
1287:Drivers/STM32F3xx_HAL_Driver/Src/stm32f3xx_hal_i2s.c ****           hi2s->State= HAL_I2S_STATE_READY;
1288:Drivers/STM32F3xx_HAL_Driver/Src/stm32f3xx_hal_i2s.c **** 
1289:Drivers/STM32F3xx_HAL_Driver/Src/stm32f3xx_hal_i2s.c ****           /* Process Unlocked */
1290:Drivers/STM32F3xx_HAL_Driver/Src/stm32f3xx_hal_i2s.c ****           __HAL_UNLOCK(hi2s);
1291:Drivers/STM32F3xx_HAL_Driver/Src/stm32f3xx_hal_i2s.c **** 
1292:Drivers/STM32F3xx_HAL_Driver/Src/stm32f3xx_hal_i2s.c ****           return HAL_TIMEOUT;
1293:Drivers/STM32F3xx_HAL_Driver/Src/stm32f3xx_hal_i2s.c ****         }
1294:Drivers/STM32F3xx_HAL_Driver/Src/stm32f3xx_hal_i2s.c ****       }
1295:Drivers/STM32F3xx_HAL_Driver/Src/stm32f3xx_hal_i2s.c ****     }
1296:Drivers/STM32F3xx_HAL_Driver/Src/stm32f3xx_hal_i2s.c ****   }
1297:Drivers/STM32F3xx_HAL_Driver/Src/stm32f3xx_hal_i2s.c ****   else
1298:Drivers/STM32F3xx_HAL_Driver/Src/stm32f3xx_hal_i2s.c ****   {
1299:Drivers/STM32F3xx_HAL_Driver/Src/stm32f3xx_hal_i2s.c ****     while(__HAL_I2S_GET_FLAG(hi2s, Flag) != RESET)
  60              		.loc 1 1299 10 is_stmt 1 view .LVU7
  61              		.loc 1 1299 11 is_stmt 0 view .LVU8
  62 0018 2B68     		ldr	r3, [r5]
  63 001a 9B68     		ldr	r3, [r3, #8]
  64              		.loc 1 1299 10 view .LVU9
  65 001c 36EA0303 		bics	r3, r6, r3
  66 0020 29D1     		bne	.L12
1300:Drivers/STM32F3xx_HAL_Driver/Src/stm32f3xx_hal_i2s.c ****     {
1301:Drivers/STM32F3xx_HAL_Driver/Src/stm32f3xx_hal_i2s.c ****       if(Timeout != HAL_MAX_DELAY)
  67              		.loc 1 1301 7 is_stmt 1 view .LVU10
  68              		.loc 1 1301 9 is_stmt 0 view .LVU11
ARM GAS  C:\Users\SHINRA~1\AppData\Local\Temp\ccBXzGic.s 			page 25


  69 0022 B4F1FF3F 		cmp	r4, #-1
  70 0026 F7D0     		beq	.L8
1302:Drivers/STM32F3xx_HAL_Driver/Src/stm32f3xx_hal_i2s.c ****       {
1303:Drivers/STM32F3xx_HAL_Driver/Src/stm32f3xx_hal_i2s.c ****         if((Timeout == 0U) || ((HAL_GetTick() - tickstart) > Timeout))
  71              		.loc 1 1303 9 is_stmt 1 view .LVU12
  72              		.loc 1 1303 11 is_stmt 0 view .LVU13
  73 0028 24B1     		cbz	r4, .L9
  74              		.loc 1 1303 33 discriminator 1 view .LVU14
  75 002a FFF7FEFF 		bl	HAL_GetTick
  76              	.LVL4:
  77              		.loc 1 1303 47 discriminator 1 view .LVU15
  78 002e C01B     		subs	r0, r0, r7
  79              		.loc 1 1303 28 discriminator 1 view .LVU16
  80 0030 A042     		cmp	r0, r4
  81 0032 F1D9     		bls	.L8
  82              	.L9:
1304:Drivers/STM32F3xx_HAL_Driver/Src/stm32f3xx_hal_i2s.c ****         {
1305:Drivers/STM32F3xx_HAL_Driver/Src/stm32f3xx_hal_i2s.c ****           /* Set the I2S State ready */
1306:Drivers/STM32F3xx_HAL_Driver/Src/stm32f3xx_hal_i2s.c ****           hi2s->State= HAL_I2S_STATE_READY;
  83              		.loc 1 1306 11 is_stmt 1 view .LVU17
  84              		.loc 1 1306 22 is_stmt 0 view .LVU18
  85 0034 0123     		movs	r3, #1
  86 0036 85F83D30 		strb	r3, [r5, #61]
1307:Drivers/STM32F3xx_HAL_Driver/Src/stm32f3xx_hal_i2s.c **** 
1308:Drivers/STM32F3xx_HAL_Driver/Src/stm32f3xx_hal_i2s.c ****           /* Process Unlocked */
1309:Drivers/STM32F3xx_HAL_Driver/Src/stm32f3xx_hal_i2s.c ****           __HAL_UNLOCK(hi2s);
  87              		.loc 1 1309 11 is_stmt 1 view .LVU19
  88              		.loc 1 1309 11 view .LVU20
  89 003a 0023     		movs	r3, #0
  90 003c 85F83C30 		strb	r3, [r5, #60]
  91              		.loc 1 1309 11 view .LVU21
1310:Drivers/STM32F3xx_HAL_Driver/Src/stm32f3xx_hal_i2s.c **** 
1311:Drivers/STM32F3xx_HAL_Driver/Src/stm32f3xx_hal_i2s.c ****           return HAL_TIMEOUT;
  92              		.loc 1 1311 11 view .LVU22
  93              		.loc 1 1311 18 is_stmt 0 view .LVU23
  94 0040 0320     		movs	r0, #3
  95 0042 16E0     		b	.L6
  96              	.L4:
1280:Drivers/STM32F3xx_HAL_Driver/Src/stm32f3xx_hal_i2s.c ****     {
  97              		.loc 1 1280 10 is_stmt 1 view .LVU24
1280:Drivers/STM32F3xx_HAL_Driver/Src/stm32f3xx_hal_i2s.c ****     {
  98              		.loc 1 1280 11 is_stmt 0 view .LVU25
  99 0044 2B68     		ldr	r3, [r5]
 100 0046 9B68     		ldr	r3, [r3, #8]
1280:Drivers/STM32F3xx_HAL_Driver/Src/stm32f3xx_hal_i2s.c ****     {
 101              		.loc 1 1280 10 view .LVU26
 102 0048 36EA0303 		bics	r3, r6, r3
 103 004c 10D0     		beq	.L13
1282:Drivers/STM32F3xx_HAL_Driver/Src/stm32f3xx_hal_i2s.c ****       {
 104              		.loc 1 1282 7 is_stmt 1 view .LVU27
1282:Drivers/STM32F3xx_HAL_Driver/Src/stm32f3xx_hal_i2s.c ****       {
 105              		.loc 1 1282 9 is_stmt 0 view .LVU28
 106 004e B4F1FF3F 		cmp	r4, #-1
 107 0052 F7D0     		beq	.L4
1284:Drivers/STM32F3xx_HAL_Driver/Src/stm32f3xx_hal_i2s.c ****         {
 108              		.loc 1 1284 9 is_stmt 1 view .LVU29
1284:Drivers/STM32F3xx_HAL_Driver/Src/stm32f3xx_hal_i2s.c ****         {
ARM GAS  C:\Users\SHINRA~1\AppData\Local\Temp\ccBXzGic.s 			page 26


 109              		.loc 1 1284 11 is_stmt 0 view .LVU30
 110 0054 24B1     		cbz	r4, .L5
1284:Drivers/STM32F3xx_HAL_Driver/Src/stm32f3xx_hal_i2s.c ****         {
 111              		.loc 1 1284 33 discriminator 1 view .LVU31
 112 0056 FFF7FEFF 		bl	HAL_GetTick
 113              	.LVL5:
1284:Drivers/STM32F3xx_HAL_Driver/Src/stm32f3xx_hal_i2s.c ****         {
 114              		.loc 1 1284 47 discriminator 1 view .LVU32
 115 005a C01B     		subs	r0, r0, r7
1284:Drivers/STM32F3xx_HAL_Driver/Src/stm32f3xx_hal_i2s.c ****         {
 116              		.loc 1 1284 28 discriminator 1 view .LVU33
 117 005c A042     		cmp	r0, r4
 118 005e F1D9     		bls	.L4
 119              	.L5:
1287:Drivers/STM32F3xx_HAL_Driver/Src/stm32f3xx_hal_i2s.c **** 
 120              		.loc 1 1287 11 is_stmt 1 view .LVU34
1287:Drivers/STM32F3xx_HAL_Driver/Src/stm32f3xx_hal_i2s.c **** 
 121              		.loc 1 1287 22 is_stmt 0 view .LVU35
 122 0060 0123     		movs	r3, #1
 123 0062 85F83D30 		strb	r3, [r5, #61]
1290:Drivers/STM32F3xx_HAL_Driver/Src/stm32f3xx_hal_i2s.c **** 
 124              		.loc 1 1290 11 is_stmt 1 view .LVU36
1290:Drivers/STM32F3xx_HAL_Driver/Src/stm32f3xx_hal_i2s.c **** 
 125              		.loc 1 1290 11 view .LVU37
 126 0066 0023     		movs	r3, #0
 127 0068 85F83C30 		strb	r3, [r5, #60]
1290:Drivers/STM32F3xx_HAL_Driver/Src/stm32f3xx_hal_i2s.c **** 
 128              		.loc 1 1290 11 view .LVU38
1292:Drivers/STM32F3xx_HAL_Driver/Src/stm32f3xx_hal_i2s.c ****         }
 129              		.loc 1 1292 11 view .LVU39
1292:Drivers/STM32F3xx_HAL_Driver/Src/stm32f3xx_hal_i2s.c ****         }
 130              		.loc 1 1292 18 is_stmt 0 view .LVU40
 131 006c 0320     		movs	r0, #3
 132 006e 00E0     		b	.L6
 133              	.L13:
1312:Drivers/STM32F3xx_HAL_Driver/Src/stm32f3xx_hal_i2s.c ****         }
1313:Drivers/STM32F3xx_HAL_Driver/Src/stm32f3xx_hal_i2s.c ****       }
1314:Drivers/STM32F3xx_HAL_Driver/Src/stm32f3xx_hal_i2s.c ****     }
1315:Drivers/STM32F3xx_HAL_Driver/Src/stm32f3xx_hal_i2s.c ****   }
1316:Drivers/STM32F3xx_HAL_Driver/Src/stm32f3xx_hal_i2s.c ****   return HAL_OK;
 134              		.loc 1 1316 10 view .LVU41
 135 0070 0020     		movs	r0, #0
 136              	.L6:
1317:Drivers/STM32F3xx_HAL_Driver/Src/stm32f3xx_hal_i2s.c **** }
 137              		.loc 1 1317 1 view .LVU42
 138 0072 BDE8F081 		pop	{r4, r5, r6, r7, r8, pc}
 139              	.LVL6:
 140              	.L12:
1316:Drivers/STM32F3xx_HAL_Driver/Src/stm32f3xx_hal_i2s.c **** }
 141              		.loc 1 1316 10 view .LVU43
 142 0076 0020     		movs	r0, #0
 143 0078 FBE7     		b	.L6
 144              		.cfi_endproc
 145              	.LFE154:
 147              		.section	.text.HAL_I2S_Init,"ax",%progbits
 148              		.align	1
 149              		.weak	HAL_I2S_Init
ARM GAS  C:\Users\SHINRA~1\AppData\Local\Temp\ccBXzGic.s 			page 27


 150              		.syntax unified
 151              		.thumb
 152              		.thumb_func
 153              		.fpu fpv4-sp-d16
 155              	HAL_I2S_Init:
 156              	.LVL7:
 157              	.LFB126:
 219:Drivers/STM32F3xx_HAL_Driver/Src/stm32f3xx_hal_i2s.c ****   /* Prevent unused argument(s) compilation warning */
 158              		.loc 1 219 1 is_stmt 1 view -0
 159              		.cfi_startproc
 160              		@ args = 0, pretend = 0, frame = 0
 161              		@ frame_needed = 0, uses_anonymous_args = 0
 162              		@ link register save eliminated.
 221:Drivers/STM32F3xx_HAL_Driver/Src/stm32f3xx_hal_i2s.c **** 
 163              		.loc 1 221 3 view .LVU45
 228:Drivers/STM32F3xx_HAL_Driver/Src/stm32f3xx_hal_i2s.c **** }
 164              		.loc 1 228 3 view .LVU46
 229:Drivers/STM32F3xx_HAL_Driver/Src/stm32f3xx_hal_i2s.c **** 
 165              		.loc 1 229 1 is_stmt 0 view .LVU47
 166 0000 0120     		movs	r0, #1
 167              	.LVL8:
 229:Drivers/STM32F3xx_HAL_Driver/Src/stm32f3xx_hal_i2s.c **** 
 168              		.loc 1 229 1 view .LVU48
 169 0002 7047     		bx	lr
 170              		.cfi_endproc
 171              	.LFE126:
 173              		.section	.text.HAL_I2S_MspInit,"ax",%progbits
 174              		.align	1
 175              		.weak	HAL_I2S_MspInit
 176              		.syntax unified
 177              		.thumb
 178              		.thumb_func
 179              		.fpu fpv4-sp-d16
 181              	HAL_I2S_MspInit:
 182              	.LVL9:
 183              	.LFB128:
 269:Drivers/STM32F3xx_HAL_Driver/Src/stm32f3xx_hal_i2s.c ****   /* Prevent unused argument(s) compilation warning */
 184              		.loc 1 269 1 is_stmt 1 view -0
 185              		.cfi_startproc
 186              		@ args = 0, pretend = 0, frame = 0
 187              		@ frame_needed = 0, uses_anonymous_args = 0
 188              		@ link register save eliminated.
 271:Drivers/STM32F3xx_HAL_Driver/Src/stm32f3xx_hal_i2s.c **** 
 189              		.loc 1 271 3 view .LVU50
 276:Drivers/STM32F3xx_HAL_Driver/Src/stm32f3xx_hal_i2s.c **** 
 190              		.loc 1 276 1 is_stmt 0 view .LVU51
 191 0000 7047     		bx	lr
 192              		.cfi_endproc
 193              	.LFE128:
 195              		.section	.text.HAL_I2S_MspDeInit,"ax",%progbits
 196              		.align	1
 197              		.weak	HAL_I2S_MspDeInit
 198              		.syntax unified
 199              		.thumb
 200              		.thumb_func
 201              		.fpu fpv4-sp-d16
 203              	HAL_I2S_MspDeInit:
ARM GAS  C:\Users\SHINRA~1\AppData\Local\Temp\ccBXzGic.s 			page 28


 204              	.LVL10:
 205              	.LFB129:
 285:Drivers/STM32F3xx_HAL_Driver/Src/stm32f3xx_hal_i2s.c ****   /* Prevent unused argument(s) compilation warning */
 206              		.loc 1 285 1 is_stmt 1 view -0
 207              		.cfi_startproc
 208              		@ args = 0, pretend = 0, frame = 0
 209              		@ frame_needed = 0, uses_anonymous_args = 0
 210              		@ link register save eliminated.
 287:Drivers/STM32F3xx_HAL_Driver/Src/stm32f3xx_hal_i2s.c **** 
 211              		.loc 1 287 3 view .LVU53
 292:Drivers/STM32F3xx_HAL_Driver/Src/stm32f3xx_hal_i2s.c **** 
 212              		.loc 1 292 1 is_stmt 0 view .LVU54
 213 0000 7047     		bx	lr
 214              		.cfi_endproc
 215              	.LFE129:
 217              		.section	.text.HAL_I2S_DeInit,"ax",%progbits
 218              		.align	1
 219              		.global	HAL_I2S_DeInit
 220              		.syntax unified
 221              		.thumb
 222              		.thumb_func
 223              		.fpu fpv4-sp-d16
 225              	HAL_I2S_DeInit:
 226              	.LVL11:
 227              	.LFB127:
 238:Drivers/STM32F3xx_HAL_Driver/Src/stm32f3xx_hal_i2s.c ****   /* Check the I2S handle allocation */
 228              		.loc 1 238 1 is_stmt 1 view -0
 229              		.cfi_startproc
 230              		@ args = 0, pretend = 0, frame = 0
 231              		@ frame_needed = 0, uses_anonymous_args = 0
 240:Drivers/STM32F3xx_HAL_Driver/Src/stm32f3xx_hal_i2s.c ****   {
 232              		.loc 1 240 3 view .LVU56
 240:Drivers/STM32F3xx_HAL_Driver/Src/stm32f3xx_hal_i2s.c ****   {
 233              		.loc 1 240 5 is_stmt 0 view .LVU57
 234 0000 68B1     		cbz	r0, .L19
 238:Drivers/STM32F3xx_HAL_Driver/Src/stm32f3xx_hal_i2s.c ****   /* Check the I2S handle allocation */
 235              		.loc 1 238 1 view .LVU58
 236 0002 10B5     		push	{r4, lr}
 237              	.LCFI1:
 238              		.cfi_def_cfa_offset 8
 239              		.cfi_offset 4, -8
 240              		.cfi_offset 14, -4
 241 0004 0446     		mov	r4, r0
 246:Drivers/STM32F3xx_HAL_Driver/Src/stm32f3xx_hal_i2s.c **** 
 242              		.loc 1 246 3 is_stmt 1 view .LVU59
 248:Drivers/STM32F3xx_HAL_Driver/Src/stm32f3xx_hal_i2s.c ****   
 243              		.loc 1 248 3 view .LVU60
 248:Drivers/STM32F3xx_HAL_Driver/Src/stm32f3xx_hal_i2s.c ****   
 244              		.loc 1 248 15 is_stmt 0 view .LVU61
 245 0006 0223     		movs	r3, #2
 246 0008 80F83D30 		strb	r3, [r0, #61]
 251:Drivers/STM32F3xx_HAL_Driver/Src/stm32f3xx_hal_i2s.c **** 
 247              		.loc 1 251 3 is_stmt 1 view .LVU62
 248 000c FFF7FEFF 		bl	HAL_I2S_MspDeInit
 249              	.LVL12:
 253:Drivers/STM32F3xx_HAL_Driver/Src/stm32f3xx_hal_i2s.c ****   hi2s->State = HAL_I2S_STATE_RESET;
 250              		.loc 1 253 3 view .LVU63
ARM GAS  C:\Users\SHINRA~1\AppData\Local\Temp\ccBXzGic.s 			page 29


 253:Drivers/STM32F3xx_HAL_Driver/Src/stm32f3xx_hal_i2s.c ****   hi2s->State = HAL_I2S_STATE_RESET;
 251              		.loc 1 253 19 is_stmt 0 view .LVU64
 252 0010 0020     		movs	r0, #0
 253 0012 2064     		str	r0, [r4, #64]
 254:Drivers/STM32F3xx_HAL_Driver/Src/stm32f3xx_hal_i2s.c **** 
 254              		.loc 1 254 3 is_stmt 1 view .LVU65
 254:Drivers/STM32F3xx_HAL_Driver/Src/stm32f3xx_hal_i2s.c **** 
 255              		.loc 1 254 15 is_stmt 0 view .LVU66
 256 0014 84F83D00 		strb	r0, [r4, #61]
 257:Drivers/STM32F3xx_HAL_Driver/Src/stm32f3xx_hal_i2s.c **** 
 257              		.loc 1 257 3 is_stmt 1 view .LVU67
 257:Drivers/STM32F3xx_HAL_Driver/Src/stm32f3xx_hal_i2s.c **** 
 258              		.loc 1 257 3 view .LVU68
 259 0018 84F83C00 		strb	r0, [r4, #60]
 257:Drivers/STM32F3xx_HAL_Driver/Src/stm32f3xx_hal_i2s.c **** 
 260              		.loc 1 257 3 view .LVU69
 259:Drivers/STM32F3xx_HAL_Driver/Src/stm32f3xx_hal_i2s.c **** }
 261              		.loc 1 259 3 view .LVU70
 260:Drivers/STM32F3xx_HAL_Driver/Src/stm32f3xx_hal_i2s.c **** 
 262              		.loc 1 260 1 is_stmt 0 view .LVU71
 263 001c 10BD     		pop	{r4, pc}
 264              	.LVL13:
 265              	.L19:
 266              	.LCFI2:
 267              		.cfi_def_cfa_offset 0
 268              		.cfi_restore 4
 269              		.cfi_restore 14
 242:Drivers/STM32F3xx_HAL_Driver/Src/stm32f3xx_hal_i2s.c ****   }
 270              		.loc 1 242 12 view .LVU72
 271 001e 0120     		movs	r0, #1
 272              	.LVL14:
 260:Drivers/STM32F3xx_HAL_Driver/Src/stm32f3xx_hal_i2s.c **** 
 273              		.loc 1 260 1 view .LVU73
 274 0020 7047     		bx	lr
 275              		.cfi_endproc
 276              	.LFE127:
 278              		.section	.text.HAL_I2S_Transmit_IT,"ax",%progbits
 279              		.align	1
 280              		.global	HAL_I2S_Transmit_IT
 281              		.syntax unified
 282              		.thumb
 283              		.thumb_func
 284              		.fpu fpv4-sp-d16
 286              	HAL_I2S_Transmit_IT:
 287              	.LVL15:
 288              	.LFB132:
 549:Drivers/STM32F3xx_HAL_Driver/Src/stm32f3xx_hal_i2s.c ****   if(hi2s->State == HAL_I2S_STATE_READY)
 289              		.loc 1 549 1 is_stmt 1 view -0
 290              		.cfi_startproc
 291              		@ args = 0, pretend = 0, frame = 0
 292              		@ frame_needed = 0, uses_anonymous_args = 0
 293              		@ link register save eliminated.
 549:Drivers/STM32F3xx_HAL_Driver/Src/stm32f3xx_hal_i2s.c ****   if(hi2s->State == HAL_I2S_STATE_READY)
 294              		.loc 1 549 1 is_stmt 0 view .LVU75
 295 0000 0346     		mov	r3, r0
 550:Drivers/STM32F3xx_HAL_Driver/Src/stm32f3xx_hal_i2s.c ****   {
 296              		.loc 1 550 3 is_stmt 1 view .LVU76
ARM GAS  C:\Users\SHINRA~1\AppData\Local\Temp\ccBXzGic.s 			page 30


 550:Drivers/STM32F3xx_HAL_Driver/Src/stm32f3xx_hal_i2s.c ****   {
 297              		.loc 1 550 10 is_stmt 0 view .LVU77
 298 0002 90F83D00 		ldrb	r0, [r0, #61]	@ zero_extendqisi2
 299              	.LVL16:
 550:Drivers/STM32F3xx_HAL_Driver/Src/stm32f3xx_hal_i2s.c ****   {
 300              		.loc 1 550 10 view .LVU78
 301 0006 C0B2     		uxtb	r0, r0
 550:Drivers/STM32F3xx_HAL_Driver/Src/stm32f3xx_hal_i2s.c ****   {
 302              		.loc 1 550 5 view .LVU79
 303 0008 0128     		cmp	r0, #1
 304 000a 34D1     		bne	.L30
 552:Drivers/STM32F3xx_HAL_Driver/Src/stm32f3xx_hal_i2s.c ****     {
 305              		.loc 1 552 5 is_stmt 1 view .LVU80
 552:Drivers/STM32F3xx_HAL_Driver/Src/stm32f3xx_hal_i2s.c ****     {
 306              		.loc 1 552 7 is_stmt 0 view .LVU81
 307 000c 0029     		cmp	r1, #0
 308 000e 35D0     		beq	.L25
 552:Drivers/STM32F3xx_HAL_Driver/Src/stm32f3xx_hal_i2s.c ****     {
 309              		.loc 1 552 24 discriminator 1 view .LVU82
 310 0010 002A     		cmp	r2, #0
 311 0012 33D0     		beq	.L25
 557:Drivers/STM32F3xx_HAL_Driver/Src/stm32f3xx_hal_i2s.c ****     if(((hi2s->Instance->I2SCFGR & (SPI_I2SCFGR_DATLEN | SPI_I2SCFGR_CHLEN)) == I2S_DATAFORMAT_24B)
 312              		.loc 1 557 5 is_stmt 1 view .LVU83
 557:Drivers/STM32F3xx_HAL_Driver/Src/stm32f3xx_hal_i2s.c ****     if(((hi2s->Instance->I2SCFGR & (SPI_I2SCFGR_DATLEN | SPI_I2SCFGR_CHLEN)) == I2S_DATAFORMAT_24B)
 313              		.loc 1 557 22 is_stmt 0 view .LVU84
 314 0014 5962     		str	r1, [r3, #36]
 558:Drivers/STM32F3xx_HAL_Driver/Src/stm32f3xx_hal_i2s.c ****       ((hi2s->Instance->I2SCFGR & (SPI_I2SCFGR_DATLEN | SPI_I2SCFGR_CHLEN)) == I2S_DATAFORMAT_32B))
 315              		.loc 1 558 5 is_stmt 1 view .LVU85
 558:Drivers/STM32F3xx_HAL_Driver/Src/stm32f3xx_hal_i2s.c ****       ((hi2s->Instance->I2SCFGR & (SPI_I2SCFGR_DATLEN | SPI_I2SCFGR_CHLEN)) == I2S_DATAFORMAT_32B))
 316              		.loc 1 558 14 is_stmt 0 view .LVU86
 317 0016 1968     		ldr	r1, [r3]
 318              	.LVL17:
 558:Drivers/STM32F3xx_HAL_Driver/Src/stm32f3xx_hal_i2s.c ****       ((hi2s->Instance->I2SCFGR & (SPI_I2SCFGR_DATLEN | SPI_I2SCFGR_CHLEN)) == I2S_DATAFORMAT_32B))
 319              		.loc 1 558 24 view .LVU87
 320 0018 C869     		ldr	r0, [r1, #28]
 558:Drivers/STM32F3xx_HAL_Driver/Src/stm32f3xx_hal_i2s.c ****       ((hi2s->Instance->I2SCFGR & (SPI_I2SCFGR_DATLEN | SPI_I2SCFGR_CHLEN)) == I2S_DATAFORMAT_32B))
 321              		.loc 1 558 34 view .LVU88
 322 001a 00F00700 		and	r0, r0, #7
 558:Drivers/STM32F3xx_HAL_Driver/Src/stm32f3xx_hal_i2s.c ****       ((hi2s->Instance->I2SCFGR & (SPI_I2SCFGR_DATLEN | SPI_I2SCFGR_CHLEN)) == I2S_DATAFORMAT_32B))
 323              		.loc 1 558 7 view .LVU89
 324 001e 0328     		cmp	r0, #3
 325 0020 07D0     		beq	.L26
 559:Drivers/STM32F3xx_HAL_Driver/Src/stm32f3xx_hal_i2s.c ****     {
 326              		.loc 1 559 23 discriminator 1 view .LVU90
 327 0022 C869     		ldr	r0, [r1, #28]
 559:Drivers/STM32F3xx_HAL_Driver/Src/stm32f3xx_hal_i2s.c ****     {
 328              		.loc 1 559 33 discriminator 1 view .LVU91
 329 0024 00F00700 		and	r0, r0, #7
 558:Drivers/STM32F3xx_HAL_Driver/Src/stm32f3xx_hal_i2s.c ****       ((hi2s->Instance->I2SCFGR & (SPI_I2SCFGR_DATLEN | SPI_I2SCFGR_CHLEN)) == I2S_DATAFORMAT_32B))
 330              		.loc 1 558 100 discriminator 1 view .LVU92
 331 0028 0528     		cmp	r0, #5
 332 002a 02D0     		beq	.L26
 566:Drivers/STM32F3xx_HAL_Driver/Src/stm32f3xx_hal_i2s.c ****       hi2s->TxXferCount = Size;
 333              		.loc 1 566 7 is_stmt 1 view .LVU93
 566:Drivers/STM32F3xx_HAL_Driver/Src/stm32f3xx_hal_i2s.c ****       hi2s->TxXferCount = Size;
 334              		.loc 1 566 24 is_stmt 0 view .LVU94
 335 002c 1A85     		strh	r2, [r3, #40]	@ movhi
ARM GAS  C:\Users\SHINRA~1\AppData\Local\Temp\ccBXzGic.s 			page 31


 567:Drivers/STM32F3xx_HAL_Driver/Src/stm32f3xx_hal_i2s.c ****     }
 336              		.loc 1 567 7 is_stmt 1 view .LVU95
 567:Drivers/STM32F3xx_HAL_Driver/Src/stm32f3xx_hal_i2s.c ****     }
 337              		.loc 1 567 25 is_stmt 0 view .LVU96
 338 002e 5A85     		strh	r2, [r3, #42]	@ movhi
 339 0030 03E0     		b	.L28
 340              	.L26:
 561:Drivers/STM32F3xx_HAL_Driver/Src/stm32f3xx_hal_i2s.c ****       hi2s->TxXferCount = (Size << 1U);
 341              		.loc 1 561 7 is_stmt 1 view .LVU97
 561:Drivers/STM32F3xx_HAL_Driver/Src/stm32f3xx_hal_i2s.c ****       hi2s->TxXferCount = (Size << 1U);
 342              		.loc 1 561 32 is_stmt 0 view .LVU98
 343 0032 5200     		lsls	r2, r2, #1
 344              	.LVL18:
 561:Drivers/STM32F3xx_HAL_Driver/Src/stm32f3xx_hal_i2s.c ****       hi2s->TxXferCount = (Size << 1U);
 345              		.loc 1 561 32 view .LVU99
 346 0034 92B2     		uxth	r2, r2
 561:Drivers/STM32F3xx_HAL_Driver/Src/stm32f3xx_hal_i2s.c ****       hi2s->TxXferCount = (Size << 1U);
 347              		.loc 1 561 24 view .LVU100
 348 0036 1A85     		strh	r2, [r3, #40]	@ movhi
 562:Drivers/STM32F3xx_HAL_Driver/Src/stm32f3xx_hal_i2s.c ****     }
 349              		.loc 1 562 7 is_stmt 1 view .LVU101
 562:Drivers/STM32F3xx_HAL_Driver/Src/stm32f3xx_hal_i2s.c ****     }
 350              		.loc 1 562 25 is_stmt 0 view .LVU102
 351 0038 5A85     		strh	r2, [r3, #42]	@ movhi
 352              	.L28:
 571:Drivers/STM32F3xx_HAL_Driver/Src/stm32f3xx_hal_i2s.c **** 
 353              		.loc 1 571 5 is_stmt 1 view .LVU103
 571:Drivers/STM32F3xx_HAL_Driver/Src/stm32f3xx_hal_i2s.c **** 
 354              		.loc 1 571 5 view .LVU104
 355 003a 93F83C20 		ldrb	r2, [r3, #60]	@ zero_extendqisi2
 356 003e D2B2     		uxtb	r2, r2
 357 0040 012A     		cmp	r2, #1
 358 0042 1AD0     		beq	.L31
 571:Drivers/STM32F3xx_HAL_Driver/Src/stm32f3xx_hal_i2s.c **** 
 359              		.loc 1 571 5 discriminator 2 view .LVU105
 360 0044 0122     		movs	r2, #1
 361 0046 83F83C20 		strb	r2, [r3, #60]
 571:Drivers/STM32F3xx_HAL_Driver/Src/stm32f3xx_hal_i2s.c **** 
 362              		.loc 1 571 5 discriminator 2 view .LVU106
 573:Drivers/STM32F3xx_HAL_Driver/Src/stm32f3xx_hal_i2s.c ****     hi2s->State = HAL_I2S_STATE_BUSY_TX;
 363              		.loc 1 573 5 discriminator 2 view .LVU107
 573:Drivers/STM32F3xx_HAL_Driver/Src/stm32f3xx_hal_i2s.c ****     hi2s->State = HAL_I2S_STATE_BUSY_TX;
 364              		.loc 1 573 21 is_stmt 0 discriminator 2 view .LVU108
 365 004a 0022     		movs	r2, #0
 366 004c 1A64     		str	r2, [r3, #64]
 574:Drivers/STM32F3xx_HAL_Driver/Src/stm32f3xx_hal_i2s.c **** 
 367              		.loc 1 574 5 is_stmt 1 discriminator 2 view .LVU109
 574:Drivers/STM32F3xx_HAL_Driver/Src/stm32f3xx_hal_i2s.c **** 
 368              		.loc 1 574 17 is_stmt 0 discriminator 2 view .LVU110
 369 004e 0322     		movs	r2, #3
 370 0050 83F83D20 		strb	r2, [r3, #61]
 577:Drivers/STM32F3xx_HAL_Driver/Src/stm32f3xx_hal_i2s.c **** 
 371              		.loc 1 577 5 is_stmt 1 discriminator 2 view .LVU111
 372 0054 4A68     		ldr	r2, [r1, #4]
 373 0056 42F0A002 		orr	r2, r2, #160
 374 005a 4A60     		str	r2, [r1, #4]
 375              	.LVL19:
ARM GAS  C:\Users\SHINRA~1\AppData\Local\Temp\ccBXzGic.s 			page 32


 580:Drivers/STM32F3xx_HAL_Driver/Src/stm32f3xx_hal_i2s.c ****     {
 376              		.loc 1 580 5 discriminator 2 view .LVU112
 580:Drivers/STM32F3xx_HAL_Driver/Src/stm32f3xx_hal_i2s.c ****     {
 377              		.loc 1 580 13 is_stmt 0 discriminator 2 view .LVU113
 378 005c 1A68     		ldr	r2, [r3]
 580:Drivers/STM32F3xx_HAL_Driver/Src/stm32f3xx_hal_i2s.c ****     {
 379              		.loc 1 580 23 discriminator 2 view .LVU114
 380 005e D169     		ldr	r1, [r2, #28]
 580:Drivers/STM32F3xx_HAL_Driver/Src/stm32f3xx_hal_i2s.c ****     {
 381              		.loc 1 580 7 discriminator 2 view .LVU115
 382 0060 11F4806F 		tst	r1, #1024
 383 0064 03D1     		bne	.L29
 583:Drivers/STM32F3xx_HAL_Driver/Src/stm32f3xx_hal_i2s.c ****     }
 384              		.loc 1 583 7 is_stmt 1 view .LVU116
 385 0066 D169     		ldr	r1, [r2, #28]
 386 0068 41F48061 		orr	r1, r1, #1024
 387 006c D161     		str	r1, [r2, #28]
 388              	.L29:
 587:Drivers/STM32F3xx_HAL_Driver/Src/stm32f3xx_hal_i2s.c ****     
 389              		.loc 1 587 5 view .LVU117
 587:Drivers/STM32F3xx_HAL_Driver/Src/stm32f3xx_hal_i2s.c ****     
 390              		.loc 1 587 5 view .LVU118
 391 006e 0020     		movs	r0, #0
 392 0070 83F83C00 		strb	r0, [r3, #60]
 587:Drivers/STM32F3xx_HAL_Driver/Src/stm32f3xx_hal_i2s.c ****     
 393              		.loc 1 587 5 view .LVU119
 589:Drivers/STM32F3xx_HAL_Driver/Src/stm32f3xx_hal_i2s.c ****   }
 394              		.loc 1 589 5 view .LVU120
 589:Drivers/STM32F3xx_HAL_Driver/Src/stm32f3xx_hal_i2s.c ****   }
 395              		.loc 1 589 12 is_stmt 0 view .LVU121
 396 0074 7047     		bx	lr
 397              	.LVL20:
 398              	.L30:
 593:Drivers/STM32F3xx_HAL_Driver/Src/stm32f3xx_hal_i2s.c ****   }
 399              		.loc 1 593 12 view .LVU122
 400 0076 0220     		movs	r0, #2
 401 0078 7047     		bx	lr
 402              	.LVL21:
 403              	.L31:
 571:Drivers/STM32F3xx_HAL_Driver/Src/stm32f3xx_hal_i2s.c **** 
 404              		.loc 1 571 5 view .LVU123
 405 007a 0220     		movs	r0, #2
 406              	.LVL22:
 407              	.L25:
 595:Drivers/STM32F3xx_HAL_Driver/Src/stm32f3xx_hal_i2s.c **** 
 408              		.loc 1 595 1 view .LVU124
 409 007c 7047     		bx	lr
 410              		.cfi_endproc
 411              	.LFE132:
 413              		.section	.text.HAL_I2S_Receive_IT,"ax",%progbits
 414              		.align	1
 415              		.global	HAL_I2S_Receive_IT
 416              		.syntax unified
 417              		.thumb
 418              		.thumb_func
 419              		.fpu fpv4-sp-d16
 421              	HAL_I2S_Receive_IT:
ARM GAS  C:\Users\SHINRA~1\AppData\Local\Temp\ccBXzGic.s 			page 33


 422              	.LVL23:
 423              	.LFB133:
 614:Drivers/STM32F3xx_HAL_Driver/Src/stm32f3xx_hal_i2s.c ****   if(hi2s->State == HAL_I2S_STATE_READY)
 424              		.loc 1 614 1 is_stmt 1 view -0
 425              		.cfi_startproc
 426              		@ args = 0, pretend = 0, frame = 0
 427              		@ frame_needed = 0, uses_anonymous_args = 0
 428              		@ link register save eliminated.
 614:Drivers/STM32F3xx_HAL_Driver/Src/stm32f3xx_hal_i2s.c ****   if(hi2s->State == HAL_I2S_STATE_READY)
 429              		.loc 1 614 1 is_stmt 0 view .LVU126
 430 0000 0346     		mov	r3, r0
 615:Drivers/STM32F3xx_HAL_Driver/Src/stm32f3xx_hal_i2s.c ****   {
 431              		.loc 1 615 3 is_stmt 1 view .LVU127
 615:Drivers/STM32F3xx_HAL_Driver/Src/stm32f3xx_hal_i2s.c ****   {
 432              		.loc 1 615 10 is_stmt 0 view .LVU128
 433 0002 90F83D00 		ldrb	r0, [r0, #61]	@ zero_extendqisi2
 434              	.LVL24:
 615:Drivers/STM32F3xx_HAL_Driver/Src/stm32f3xx_hal_i2s.c ****   {
 435              		.loc 1 615 10 view .LVU129
 436 0006 C0B2     		uxtb	r0, r0
 615:Drivers/STM32F3xx_HAL_Driver/Src/stm32f3xx_hal_i2s.c ****   {
 437              		.loc 1 615 5 view .LVU130
 438 0008 0128     		cmp	r0, #1
 439 000a 34D1     		bne	.L38
 617:Drivers/STM32F3xx_HAL_Driver/Src/stm32f3xx_hal_i2s.c ****     {
 440              		.loc 1 617 5 is_stmt 1 view .LVU131
 617:Drivers/STM32F3xx_HAL_Driver/Src/stm32f3xx_hal_i2s.c ****     {
 441              		.loc 1 617 7 is_stmt 0 view .LVU132
 442 000c 0029     		cmp	r1, #0
 443 000e 35D0     		beq	.L33
 617:Drivers/STM32F3xx_HAL_Driver/Src/stm32f3xx_hal_i2s.c ****     {
 444              		.loc 1 617 24 discriminator 1 view .LVU133
 445 0010 002A     		cmp	r2, #0
 446 0012 33D0     		beq	.L33
 622:Drivers/STM32F3xx_HAL_Driver/Src/stm32f3xx_hal_i2s.c ****     if(((hi2s->Instance->I2SCFGR & (SPI_I2SCFGR_DATLEN | SPI_I2SCFGR_CHLEN)) == I2S_DATAFORMAT_24B)
 447              		.loc 1 622 5 is_stmt 1 view .LVU134
 622:Drivers/STM32F3xx_HAL_Driver/Src/stm32f3xx_hal_i2s.c ****     if(((hi2s->Instance->I2SCFGR & (SPI_I2SCFGR_DATLEN | SPI_I2SCFGR_CHLEN)) == I2S_DATAFORMAT_24B)
 448              		.loc 1 622 22 is_stmt 0 view .LVU135
 449 0014 D962     		str	r1, [r3, #44]
 623:Drivers/STM32F3xx_HAL_Driver/Src/stm32f3xx_hal_i2s.c ****       ((hi2s->Instance->I2SCFGR & (SPI_I2SCFGR_DATLEN | SPI_I2SCFGR_CHLEN)) == I2S_DATAFORMAT_32B))
 450              		.loc 1 623 5 is_stmt 1 view .LVU136
 623:Drivers/STM32F3xx_HAL_Driver/Src/stm32f3xx_hal_i2s.c ****       ((hi2s->Instance->I2SCFGR & (SPI_I2SCFGR_DATLEN | SPI_I2SCFGR_CHLEN)) == I2S_DATAFORMAT_32B))
 451              		.loc 1 623 14 is_stmt 0 view .LVU137
 452 0016 1968     		ldr	r1, [r3]
 453              	.LVL25:
 623:Drivers/STM32F3xx_HAL_Driver/Src/stm32f3xx_hal_i2s.c ****       ((hi2s->Instance->I2SCFGR & (SPI_I2SCFGR_DATLEN | SPI_I2SCFGR_CHLEN)) == I2S_DATAFORMAT_32B))
 454              		.loc 1 623 24 view .LVU138
 455 0018 C869     		ldr	r0, [r1, #28]
 623:Drivers/STM32F3xx_HAL_Driver/Src/stm32f3xx_hal_i2s.c ****       ((hi2s->Instance->I2SCFGR & (SPI_I2SCFGR_DATLEN | SPI_I2SCFGR_CHLEN)) == I2S_DATAFORMAT_32B))
 456              		.loc 1 623 34 view .LVU139
 457 001a 00F00700 		and	r0, r0, #7
 623:Drivers/STM32F3xx_HAL_Driver/Src/stm32f3xx_hal_i2s.c ****       ((hi2s->Instance->I2SCFGR & (SPI_I2SCFGR_DATLEN | SPI_I2SCFGR_CHLEN)) == I2S_DATAFORMAT_32B))
 458              		.loc 1 623 7 view .LVU140
 459 001e 0328     		cmp	r0, #3
 460 0020 07D0     		beq	.L34
 624:Drivers/STM32F3xx_HAL_Driver/Src/stm32f3xx_hal_i2s.c ****     {
 461              		.loc 1 624 23 discriminator 1 view .LVU141
ARM GAS  C:\Users\SHINRA~1\AppData\Local\Temp\ccBXzGic.s 			page 34


 462 0022 C869     		ldr	r0, [r1, #28]
 624:Drivers/STM32F3xx_HAL_Driver/Src/stm32f3xx_hal_i2s.c ****     {
 463              		.loc 1 624 33 discriminator 1 view .LVU142
 464 0024 00F00700 		and	r0, r0, #7
 623:Drivers/STM32F3xx_HAL_Driver/Src/stm32f3xx_hal_i2s.c ****       ((hi2s->Instance->I2SCFGR & (SPI_I2SCFGR_DATLEN | SPI_I2SCFGR_CHLEN)) == I2S_DATAFORMAT_32B))
 465              		.loc 1 623 100 discriminator 1 view .LVU143
 466 0028 0528     		cmp	r0, #5
 467 002a 02D0     		beq	.L34
 631:Drivers/STM32F3xx_HAL_Driver/Src/stm32f3xx_hal_i2s.c ****       hi2s->RxXferCount = Size;
 468              		.loc 1 631 7 is_stmt 1 view .LVU144
 631:Drivers/STM32F3xx_HAL_Driver/Src/stm32f3xx_hal_i2s.c ****       hi2s->RxXferCount = Size;
 469              		.loc 1 631 24 is_stmt 0 view .LVU145
 470 002c 1A86     		strh	r2, [r3, #48]	@ movhi
 632:Drivers/STM32F3xx_HAL_Driver/Src/stm32f3xx_hal_i2s.c ****     }
 471              		.loc 1 632 7 is_stmt 1 view .LVU146
 632:Drivers/STM32F3xx_HAL_Driver/Src/stm32f3xx_hal_i2s.c ****     }
 472              		.loc 1 632 25 is_stmt 0 view .LVU147
 473 002e 5A86     		strh	r2, [r3, #50]	@ movhi
 474 0030 03E0     		b	.L36
 475              	.L34:
 626:Drivers/STM32F3xx_HAL_Driver/Src/stm32f3xx_hal_i2s.c ****       hi2s->RxXferCount = (Size << 1U);
 476              		.loc 1 626 7 is_stmt 1 view .LVU148
 626:Drivers/STM32F3xx_HAL_Driver/Src/stm32f3xx_hal_i2s.c ****       hi2s->RxXferCount = (Size << 1U);
 477              		.loc 1 626 32 is_stmt 0 view .LVU149
 478 0032 5200     		lsls	r2, r2, #1
 479              	.LVL26:
 626:Drivers/STM32F3xx_HAL_Driver/Src/stm32f3xx_hal_i2s.c ****       hi2s->RxXferCount = (Size << 1U);
 480              		.loc 1 626 32 view .LVU150
 481 0034 92B2     		uxth	r2, r2
 626:Drivers/STM32F3xx_HAL_Driver/Src/stm32f3xx_hal_i2s.c ****       hi2s->RxXferCount = (Size << 1U);
 482              		.loc 1 626 24 view .LVU151
 483 0036 1A86     		strh	r2, [r3, #48]	@ movhi
 627:Drivers/STM32F3xx_HAL_Driver/Src/stm32f3xx_hal_i2s.c ****     }  
 484              		.loc 1 627 7 is_stmt 1 view .LVU152
 627:Drivers/STM32F3xx_HAL_Driver/Src/stm32f3xx_hal_i2s.c ****     }  
 485              		.loc 1 627 25 is_stmt 0 view .LVU153
 486 0038 5A86     		strh	r2, [r3, #50]	@ movhi
 487              	.L36:
 635:Drivers/STM32F3xx_HAL_Driver/Src/stm32f3xx_hal_i2s.c ****     
 488              		.loc 1 635 5 is_stmt 1 view .LVU154
 635:Drivers/STM32F3xx_HAL_Driver/Src/stm32f3xx_hal_i2s.c ****     
 489              		.loc 1 635 5 view .LVU155
 490 003a 93F83C20 		ldrb	r2, [r3, #60]	@ zero_extendqisi2
 491 003e D2B2     		uxtb	r2, r2
 492 0040 012A     		cmp	r2, #1
 493 0042 1AD0     		beq	.L39
 635:Drivers/STM32F3xx_HAL_Driver/Src/stm32f3xx_hal_i2s.c ****     
 494              		.loc 1 635 5 discriminator 2 view .LVU156
 495 0044 0122     		movs	r2, #1
 496 0046 83F83C20 		strb	r2, [r3, #60]
 635:Drivers/STM32F3xx_HAL_Driver/Src/stm32f3xx_hal_i2s.c ****     
 497              		.loc 1 635 5 discriminator 2 view .LVU157
 637:Drivers/STM32F3xx_HAL_Driver/Src/stm32f3xx_hal_i2s.c ****     hi2s->State = HAL_I2S_STATE_BUSY_RX;
 498              		.loc 1 637 5 discriminator 2 view .LVU158
 637:Drivers/STM32F3xx_HAL_Driver/Src/stm32f3xx_hal_i2s.c ****     hi2s->State = HAL_I2S_STATE_BUSY_RX;
 499              		.loc 1 637 21 is_stmt 0 discriminator 2 view .LVU159
 500 004a 0022     		movs	r2, #0
ARM GAS  C:\Users\SHINRA~1\AppData\Local\Temp\ccBXzGic.s 			page 35


 501 004c 1A64     		str	r2, [r3, #64]
 638:Drivers/STM32F3xx_HAL_Driver/Src/stm32f3xx_hal_i2s.c **** 
 502              		.loc 1 638 5 is_stmt 1 discriminator 2 view .LVU160
 638:Drivers/STM32F3xx_HAL_Driver/Src/stm32f3xx_hal_i2s.c **** 
 503              		.loc 1 638 17 is_stmt 0 discriminator 2 view .LVU161
 504 004e 0422     		movs	r2, #4
 505 0050 83F83D20 		strb	r2, [r3, #61]
 641:Drivers/STM32F3xx_HAL_Driver/Src/stm32f3xx_hal_i2s.c ****     
 506              		.loc 1 641 5 is_stmt 1 discriminator 2 view .LVU162
 507 0054 4A68     		ldr	r2, [r1, #4]
 508 0056 42F06002 		orr	r2, r2, #96
 509 005a 4A60     		str	r2, [r1, #4]
 510              	.LVL27:
 644:Drivers/STM32F3xx_HAL_Driver/Src/stm32f3xx_hal_i2s.c ****     {
 511              		.loc 1 644 5 discriminator 2 view .LVU163
 644:Drivers/STM32F3xx_HAL_Driver/Src/stm32f3xx_hal_i2s.c ****     {
 512              		.loc 1 644 13 is_stmt 0 discriminator 2 view .LVU164
 513 005c 1A68     		ldr	r2, [r3]
 644:Drivers/STM32F3xx_HAL_Driver/Src/stm32f3xx_hal_i2s.c ****     {
 514              		.loc 1 644 23 discriminator 2 view .LVU165
 515 005e D169     		ldr	r1, [r2, #28]
 644:Drivers/STM32F3xx_HAL_Driver/Src/stm32f3xx_hal_i2s.c ****     {
 516              		.loc 1 644 7 discriminator 2 view .LVU166
 517 0060 11F4806F 		tst	r1, #1024
 518 0064 03D1     		bne	.L37
 647:Drivers/STM32F3xx_HAL_Driver/Src/stm32f3xx_hal_i2s.c ****     }
 519              		.loc 1 647 7 is_stmt 1 view .LVU167
 520 0066 D169     		ldr	r1, [r2, #28]
 521 0068 41F48061 		orr	r1, r1, #1024
 522 006c D161     		str	r1, [r2, #28]
 523              	.L37:
 651:Drivers/STM32F3xx_HAL_Driver/Src/stm32f3xx_hal_i2s.c **** 
 524              		.loc 1 651 5 view .LVU168
 651:Drivers/STM32F3xx_HAL_Driver/Src/stm32f3xx_hal_i2s.c **** 
 525              		.loc 1 651 5 view .LVU169
 526 006e 0020     		movs	r0, #0
 527 0070 83F83C00 		strb	r0, [r3, #60]
 651:Drivers/STM32F3xx_HAL_Driver/Src/stm32f3xx_hal_i2s.c **** 
 528              		.loc 1 651 5 view .LVU170
 653:Drivers/STM32F3xx_HAL_Driver/Src/stm32f3xx_hal_i2s.c ****   }
 529              		.loc 1 653 5 view .LVU171
 653:Drivers/STM32F3xx_HAL_Driver/Src/stm32f3xx_hal_i2s.c ****   }
 530              		.loc 1 653 12 is_stmt 0 view .LVU172
 531 0074 7047     		bx	lr
 532              	.LVL28:
 533              	.L38:
 657:Drivers/STM32F3xx_HAL_Driver/Src/stm32f3xx_hal_i2s.c ****   } 
 534              		.loc 1 657 12 view .LVU173
 535 0076 0220     		movs	r0, #2
 536 0078 7047     		bx	lr
 537              	.LVL29:
 538              	.L39:
 635:Drivers/STM32F3xx_HAL_Driver/Src/stm32f3xx_hal_i2s.c ****     
 539              		.loc 1 635 5 view .LVU174
 540 007a 0220     		movs	r0, #2
 541              	.LVL30:
 542              	.L33:
ARM GAS  C:\Users\SHINRA~1\AppData\Local\Temp\ccBXzGic.s 			page 36


 659:Drivers/STM32F3xx_HAL_Driver/Src/stm32f3xx_hal_i2s.c **** 
 543              		.loc 1 659 1 view .LVU175
 544 007c 7047     		bx	lr
 545              		.cfi_endproc
 546              	.LFE133:
 548              		.section	.text.HAL_I2S_Transmit_DMA,"ax",%progbits
 549              		.align	1
 550              		.global	HAL_I2S_Transmit_DMA
 551              		.syntax unified
 552              		.thumb
 553              		.thumb_func
 554              		.fpu fpv4-sp-d16
 556              	HAL_I2S_Transmit_DMA:
 557              	.LVL31:
 558              	.LFB134:
 676:Drivers/STM32F3xx_HAL_Driver/Src/stm32f3xx_hal_i2s.c ****   uint32_t *tmp;
 559              		.loc 1 676 1 is_stmt 1 view -0
 560              		.cfi_startproc
 561              		@ args = 0, pretend = 0, frame = 0
 562              		@ frame_needed = 0, uses_anonymous_args = 0
 677:Drivers/STM32F3xx_HAL_Driver/Src/stm32f3xx_hal_i2s.c ****   
 563              		.loc 1 677 3 view .LVU177
 679:Drivers/STM32F3xx_HAL_Driver/Src/stm32f3xx_hal_i2s.c ****   {
 564              		.loc 1 679 3 view .LVU178
 679:Drivers/STM32F3xx_HAL_Driver/Src/stm32f3xx_hal_i2s.c ****   {
 565              		.loc 1 679 5 is_stmt 0 view .LVU179
 566 0000 0029     		cmp	r1, #0
 567 0002 4CD0     		beq	.L46
 676:Drivers/STM32F3xx_HAL_Driver/Src/stm32f3xx_hal_i2s.c ****   uint32_t *tmp;
 568              		.loc 1 676 1 discriminator 1 view .LVU180
 569 0004 10B5     		push	{r4, lr}
 570              	.LCFI3:
 571              		.cfi_def_cfa_offset 8
 572              		.cfi_offset 4, -8
 573              		.cfi_offset 14, -4
 574 0006 0446     		mov	r4, r0
 575 0008 0846     		mov	r0, r1
 576              	.LVL32:
 679:Drivers/STM32F3xx_HAL_Driver/Src/stm32f3xx_hal_i2s.c ****   {
 577              		.loc 1 679 22 discriminator 1 view .LVU181
 578 000a 002A     		cmp	r2, #0
 579 000c 49D0     		beq	.L47
 684:Drivers/STM32F3xx_HAL_Driver/Src/stm32f3xx_hal_i2s.c ****   {  
 580              		.loc 1 684 3 is_stmt 1 view .LVU182
 684:Drivers/STM32F3xx_HAL_Driver/Src/stm32f3xx_hal_i2s.c ****   {  
 581              		.loc 1 684 10 is_stmt 0 view .LVU183
 582 000e 94F83D30 		ldrb	r3, [r4, #61]	@ zero_extendqisi2
 583 0012 DBB2     		uxtb	r3, r3
 684:Drivers/STM32F3xx_HAL_Driver/Src/stm32f3xx_hal_i2s.c ****   {  
 584              		.loc 1 684 5 view .LVU184
 585 0014 012B     		cmp	r3, #1
 586 0016 46D1     		bne	.L48
 686:Drivers/STM32F3xx_HAL_Driver/Src/stm32f3xx_hal_i2s.c ****     if(((hi2s->Instance->I2SCFGR & (SPI_I2SCFGR_DATLEN | SPI_I2SCFGR_CHLEN)) == I2S_DATAFORMAT_24B)
 587              		.loc 1 686 5 is_stmt 1 view .LVU185
 686:Drivers/STM32F3xx_HAL_Driver/Src/stm32f3xx_hal_i2s.c ****     if(((hi2s->Instance->I2SCFGR & (SPI_I2SCFGR_DATLEN | SPI_I2SCFGR_CHLEN)) == I2S_DATAFORMAT_24B)
 588              		.loc 1 686 22 is_stmt 0 view .LVU186
 589 0018 6162     		str	r1, [r4, #36]
ARM GAS  C:\Users\SHINRA~1\AppData\Local\Temp\ccBXzGic.s 			page 37


 687:Drivers/STM32F3xx_HAL_Driver/Src/stm32f3xx_hal_i2s.c ****       ((hi2s->Instance->I2SCFGR & (SPI_I2SCFGR_DATLEN | SPI_I2SCFGR_CHLEN)) == I2S_DATAFORMAT_32B))
 590              		.loc 1 687 5 is_stmt 1 view .LVU187
 687:Drivers/STM32F3xx_HAL_Driver/Src/stm32f3xx_hal_i2s.c ****       ((hi2s->Instance->I2SCFGR & (SPI_I2SCFGR_DATLEN | SPI_I2SCFGR_CHLEN)) == I2S_DATAFORMAT_32B))
 591              		.loc 1 687 14 is_stmt 0 view .LVU188
 592 001a 2168     		ldr	r1, [r4]
 593              	.LVL33:
 687:Drivers/STM32F3xx_HAL_Driver/Src/stm32f3xx_hal_i2s.c ****       ((hi2s->Instance->I2SCFGR & (SPI_I2SCFGR_DATLEN | SPI_I2SCFGR_CHLEN)) == I2S_DATAFORMAT_32B))
 594              		.loc 1 687 24 view .LVU189
 595 001c CB69     		ldr	r3, [r1, #28]
 687:Drivers/STM32F3xx_HAL_Driver/Src/stm32f3xx_hal_i2s.c ****       ((hi2s->Instance->I2SCFGR & (SPI_I2SCFGR_DATLEN | SPI_I2SCFGR_CHLEN)) == I2S_DATAFORMAT_32B))
 596              		.loc 1 687 34 view .LVU190
 597 001e 03F00703 		and	r3, r3, #7
 687:Drivers/STM32F3xx_HAL_Driver/Src/stm32f3xx_hal_i2s.c ****       ((hi2s->Instance->I2SCFGR & (SPI_I2SCFGR_DATLEN | SPI_I2SCFGR_CHLEN)) == I2S_DATAFORMAT_32B))
 598              		.loc 1 687 7 view .LVU191
 599 0022 032B     		cmp	r3, #3
 600 0024 07D0     		beq	.L42
 688:Drivers/STM32F3xx_HAL_Driver/Src/stm32f3xx_hal_i2s.c ****     {
 601              		.loc 1 688 23 discriminator 1 view .LVU192
 602 0026 CB69     		ldr	r3, [r1, #28]
 688:Drivers/STM32F3xx_HAL_Driver/Src/stm32f3xx_hal_i2s.c ****     {
 603              		.loc 1 688 33 discriminator 1 view .LVU193
 604 0028 03F00703 		and	r3, r3, #7
 687:Drivers/STM32F3xx_HAL_Driver/Src/stm32f3xx_hal_i2s.c ****       ((hi2s->Instance->I2SCFGR & (SPI_I2SCFGR_DATLEN | SPI_I2SCFGR_CHLEN)) == I2S_DATAFORMAT_32B))
 605              		.loc 1 687 100 discriminator 1 view .LVU194
 606 002c 052B     		cmp	r3, #5
 607 002e 02D0     		beq	.L42
 695:Drivers/STM32F3xx_HAL_Driver/Src/stm32f3xx_hal_i2s.c ****       hi2s->TxXferCount = Size;
 608              		.loc 1 695 7 is_stmt 1 view .LVU195
 695:Drivers/STM32F3xx_HAL_Driver/Src/stm32f3xx_hal_i2s.c ****       hi2s->TxXferCount = Size;
 609              		.loc 1 695 24 is_stmt 0 view .LVU196
 610 0030 2285     		strh	r2, [r4, #40]	@ movhi
 696:Drivers/STM32F3xx_HAL_Driver/Src/stm32f3xx_hal_i2s.c ****     }
 611              		.loc 1 696 7 is_stmt 1 view .LVU197
 696:Drivers/STM32F3xx_HAL_Driver/Src/stm32f3xx_hal_i2s.c ****     }
 612              		.loc 1 696 25 is_stmt 0 view .LVU198
 613 0032 6285     		strh	r2, [r4, #42]	@ movhi
 614 0034 03E0     		b	.L44
 615              	.L42:
 690:Drivers/STM32F3xx_HAL_Driver/Src/stm32f3xx_hal_i2s.c ****       hi2s->TxXferCount = (Size << 1U);
 616              		.loc 1 690 7 is_stmt 1 view .LVU199
 690:Drivers/STM32F3xx_HAL_Driver/Src/stm32f3xx_hal_i2s.c ****       hi2s->TxXferCount = (Size << 1U);
 617              		.loc 1 690 32 is_stmt 0 view .LVU200
 618 0036 5200     		lsls	r2, r2, #1
 619              	.LVL34:
 690:Drivers/STM32F3xx_HAL_Driver/Src/stm32f3xx_hal_i2s.c ****       hi2s->TxXferCount = (Size << 1U);
 620              		.loc 1 690 32 view .LVU201
 621 0038 92B2     		uxth	r2, r2
 690:Drivers/STM32F3xx_HAL_Driver/Src/stm32f3xx_hal_i2s.c ****       hi2s->TxXferCount = (Size << 1U);
 622              		.loc 1 690 24 view .LVU202
 623 003a 2285     		strh	r2, [r4, #40]	@ movhi
 691:Drivers/STM32F3xx_HAL_Driver/Src/stm32f3xx_hal_i2s.c ****     }
 624              		.loc 1 691 7 is_stmt 1 view .LVU203
 691:Drivers/STM32F3xx_HAL_Driver/Src/stm32f3xx_hal_i2s.c ****     }
 625              		.loc 1 691 25 is_stmt 0 view .LVU204
 626 003c 6285     		strh	r2, [r4, #42]	@ movhi
 627              	.L44:
 700:Drivers/STM32F3xx_HAL_Driver/Src/stm32f3xx_hal_i2s.c **** 
ARM GAS  C:\Users\SHINRA~1\AppData\Local\Temp\ccBXzGic.s 			page 38


 628              		.loc 1 700 5 is_stmt 1 view .LVU205
 700:Drivers/STM32F3xx_HAL_Driver/Src/stm32f3xx_hal_i2s.c **** 
 629              		.loc 1 700 5 view .LVU206
 630 003e 94F83C30 		ldrb	r3, [r4, #60]	@ zero_extendqisi2
 631 0042 DBB2     		uxtb	r3, r3
 632 0044 012B     		cmp	r3, #1
 633 0046 30D0     		beq	.L49
 700:Drivers/STM32F3xx_HAL_Driver/Src/stm32f3xx_hal_i2s.c **** 
 634              		.loc 1 700 5 discriminator 2 view .LVU207
 635 0048 0123     		movs	r3, #1
 636 004a 84F83C30 		strb	r3, [r4, #60]
 700:Drivers/STM32F3xx_HAL_Driver/Src/stm32f3xx_hal_i2s.c **** 
 637              		.loc 1 700 5 discriminator 2 view .LVU208
 702:Drivers/STM32F3xx_HAL_Driver/Src/stm32f3xx_hal_i2s.c ****     hi2s->State = HAL_I2S_STATE_BUSY_TX;
 638              		.loc 1 702 5 discriminator 2 view .LVU209
 702:Drivers/STM32F3xx_HAL_Driver/Src/stm32f3xx_hal_i2s.c ****     hi2s->State = HAL_I2S_STATE_BUSY_TX;
 639              		.loc 1 702 21 is_stmt 0 discriminator 2 view .LVU210
 640 004e 0023     		movs	r3, #0
 641 0050 2364     		str	r3, [r4, #64]
 703:Drivers/STM32F3xx_HAL_Driver/Src/stm32f3xx_hal_i2s.c **** 
 642              		.loc 1 703 5 is_stmt 1 discriminator 2 view .LVU211
 703:Drivers/STM32F3xx_HAL_Driver/Src/stm32f3xx_hal_i2s.c **** 
 643              		.loc 1 703 17 is_stmt 0 discriminator 2 view .LVU212
 644 0052 0323     		movs	r3, #3
 645 0054 84F83D30 		strb	r3, [r4, #61]
 706:Drivers/STM32F3xx_HAL_Driver/Src/stm32f3xx_hal_i2s.c **** 
 646              		.loc 1 706 5 is_stmt 1 discriminator 2 view .LVU213
 706:Drivers/STM32F3xx_HAL_Driver/Src/stm32f3xx_hal_i2s.c **** 
 647              		.loc 1 706 9 is_stmt 0 discriminator 2 view .LVU214
 648 0058 636B     		ldr	r3, [r4, #52]
 706:Drivers/STM32F3xx_HAL_Driver/Src/stm32f3xx_hal_i2s.c **** 
 649              		.loc 1 706 40 discriminator 2 view .LVU215
 650 005a 154A     		ldr	r2, .L54
 651 005c DA62     		str	r2, [r3, #44]
 709:Drivers/STM32F3xx_HAL_Driver/Src/stm32f3xx_hal_i2s.c **** 
 652              		.loc 1 709 5 is_stmt 1 discriminator 2 view .LVU216
 709:Drivers/STM32F3xx_HAL_Driver/Src/stm32f3xx_hal_i2s.c **** 
 653              		.loc 1 709 9 is_stmt 0 discriminator 2 view .LVU217
 654 005e 636B     		ldr	r3, [r4, #52]
 709:Drivers/STM32F3xx_HAL_Driver/Src/stm32f3xx_hal_i2s.c **** 
 655              		.loc 1 709 36 discriminator 2 view .LVU218
 656 0060 144A     		ldr	r2, .L54+4
 657 0062 9A62     		str	r2, [r3, #40]
 712:Drivers/STM32F3xx_HAL_Driver/Src/stm32f3xx_hal_i2s.c **** 
 658              		.loc 1 712 5 is_stmt 1 discriminator 2 view .LVU219
 712:Drivers/STM32F3xx_HAL_Driver/Src/stm32f3xx_hal_i2s.c **** 
 659              		.loc 1 712 9 is_stmt 0 discriminator 2 view .LVU220
 660 0064 636B     		ldr	r3, [r4, #52]
 712:Drivers/STM32F3xx_HAL_Driver/Src/stm32f3xx_hal_i2s.c **** 
 661              		.loc 1 712 37 discriminator 2 view .LVU221
 662 0066 144A     		ldr	r2, .L54+8
 663 0068 1A63     		str	r2, [r3, #48]
 715:Drivers/STM32F3xx_HAL_Driver/Src/stm32f3xx_hal_i2s.c ****     HAL_DMA_Start_IT(hi2s->hdmatx, *(uint32_t*)tmp, (uint32_t)&hi2s->Instance->DR, hi2s->TxXferSize
 664              		.loc 1 715 5 is_stmt 1 discriminator 2 view .LVU222
 665              	.LVL35:
 716:Drivers/STM32F3xx_HAL_Driver/Src/stm32f3xx_hal_i2s.c **** 
 666              		.loc 1 716 5 discriminator 2 view .LVU223
ARM GAS  C:\Users\SHINRA~1\AppData\Local\Temp\ccBXzGic.s 			page 39


 716:Drivers/STM32F3xx_HAL_Driver/Src/stm32f3xx_hal_i2s.c **** 
 667              		.loc 1 716 68 is_stmt 0 discriminator 2 view .LVU224
 668 006a 2268     		ldr	r2, [r4]
 716:Drivers/STM32F3xx_HAL_Driver/Src/stm32f3xx_hal_i2s.c **** 
 669              		.loc 1 716 88 discriminator 2 view .LVU225
 670 006c 238D     		ldrh	r3, [r4, #40]
 716:Drivers/STM32F3xx_HAL_Driver/Src/stm32f3xx_hal_i2s.c **** 
 671              		.loc 1 716 5 discriminator 2 view .LVU226
 672 006e 9BB2     		uxth	r3, r3
 673 0070 0C32     		adds	r2, r2, #12
 674 0072 0146     		mov	r1, r0
 675 0074 606B     		ldr	r0, [r4, #52]
 676              	.LVL36:
 716:Drivers/STM32F3xx_HAL_Driver/Src/stm32f3xx_hal_i2s.c **** 
 677              		.loc 1 716 5 discriminator 2 view .LVU227
 678 0076 FFF7FEFF 		bl	HAL_DMA_Start_IT
 679              	.LVL37:
 719:Drivers/STM32F3xx_HAL_Driver/Src/stm32f3xx_hal_i2s.c ****     {
 680              		.loc 1 719 5 is_stmt 1 discriminator 2 view .LVU228
 719:Drivers/STM32F3xx_HAL_Driver/Src/stm32f3xx_hal_i2s.c ****     {
 681              		.loc 1 719 13 is_stmt 0 discriminator 2 view .LVU229
 682 007a 2368     		ldr	r3, [r4]
 719:Drivers/STM32F3xx_HAL_Driver/Src/stm32f3xx_hal_i2s.c ****     {
 683              		.loc 1 719 23 discriminator 2 view .LVU230
 684 007c DA69     		ldr	r2, [r3, #28]
 719:Drivers/STM32F3xx_HAL_Driver/Src/stm32f3xx_hal_i2s.c ****     {
 685              		.loc 1 719 7 discriminator 2 view .LVU231
 686 007e 12F4806F 		tst	r2, #1024
 687 0082 03D1     		bne	.L45
 722:Drivers/STM32F3xx_HAL_Driver/Src/stm32f3xx_hal_i2s.c ****     }
 688              		.loc 1 722 7 is_stmt 1 view .LVU232
 689 0084 DA69     		ldr	r2, [r3, #28]
 690 0086 42F48062 		orr	r2, r2, #1024
 691 008a DA61     		str	r2, [r3, #28]
 692              	.L45:
 726:Drivers/STM32F3xx_HAL_Driver/Src/stm32f3xx_hal_i2s.c **** 
 693              		.loc 1 726 5 view .LVU233
 726:Drivers/STM32F3xx_HAL_Driver/Src/stm32f3xx_hal_i2s.c **** 
 694              		.loc 1 726 9 is_stmt 0 view .LVU234
 695 008c 2268     		ldr	r2, [r4]
 726:Drivers/STM32F3xx_HAL_Driver/Src/stm32f3xx_hal_i2s.c **** 
 696              		.loc 1 726 25 view .LVU235
 697 008e 5368     		ldr	r3, [r2, #4]
 698 0090 43F00203 		orr	r3, r3, #2
 699 0094 5360     		str	r3, [r2, #4]
 729:Drivers/STM32F3xx_HAL_Driver/Src/stm32f3xx_hal_i2s.c ****     
 700              		.loc 1 729 5 is_stmt 1 view .LVU236
 729:Drivers/STM32F3xx_HAL_Driver/Src/stm32f3xx_hal_i2s.c ****     
 701              		.loc 1 729 5 view .LVU237
 702 0096 0020     		movs	r0, #0
 703 0098 84F83C00 		strb	r0, [r4, #60]
 729:Drivers/STM32F3xx_HAL_Driver/Src/stm32f3xx_hal_i2s.c ****     
 704              		.loc 1 729 5 view .LVU238
 731:Drivers/STM32F3xx_HAL_Driver/Src/stm32f3xx_hal_i2s.c ****   }
 705              		.loc 1 731 5 view .LVU239
 731:Drivers/STM32F3xx_HAL_Driver/Src/stm32f3xx_hal_i2s.c ****   }
 706              		.loc 1 731 12 is_stmt 0 view .LVU240
ARM GAS  C:\Users\SHINRA~1\AppData\Local\Temp\ccBXzGic.s 			page 40


 707 009c 02E0     		b	.L41
 708              	.LVL38:
 709              	.L46:
 710              	.LCFI4:
 711              		.cfi_def_cfa_offset 0
 712              		.cfi_restore 4
 713              		.cfi_restore 14
 681:Drivers/STM32F3xx_HAL_Driver/Src/stm32f3xx_hal_i2s.c ****   }
 714              		.loc 1 681 13 view .LVU241
 715 009e 0120     		movs	r0, #1
 716              	.LVL39:
 737:Drivers/STM32F3xx_HAL_Driver/Src/stm32f3xx_hal_i2s.c **** 
 717              		.loc 1 737 1 view .LVU242
 718 00a0 7047     		bx	lr
 719              	.LVL40:
 720              	.L47:
 721              	.LCFI5:
 722              		.cfi_def_cfa_offset 8
 723              		.cfi_offset 4, -8
 724              		.cfi_offset 14, -4
 681:Drivers/STM32F3xx_HAL_Driver/Src/stm32f3xx_hal_i2s.c ****   }
 725              		.loc 1 681 13 view .LVU243
 726 00a2 0120     		movs	r0, #1
 727              	.LVL41:
 728              	.L41:
 737:Drivers/STM32F3xx_HAL_Driver/Src/stm32f3xx_hal_i2s.c **** 
 729              		.loc 1 737 1 view .LVU244
 730 00a4 10BD     		pop	{r4, pc}
 731              	.LVL42:
 732              	.L48:
 735:Drivers/STM32F3xx_HAL_Driver/Src/stm32f3xx_hal_i2s.c ****   }
 733              		.loc 1 735 12 view .LVU245
 734 00a6 0220     		movs	r0, #2
 735              	.LVL43:
 735:Drivers/STM32F3xx_HAL_Driver/Src/stm32f3xx_hal_i2s.c ****   }
 736              		.loc 1 735 12 view .LVU246
 737 00a8 FCE7     		b	.L41
 738              	.LVL44:
 739              	.L49:
 700:Drivers/STM32F3xx_HAL_Driver/Src/stm32f3xx_hal_i2s.c **** 
 740              		.loc 1 700 5 view .LVU247
 741 00aa 0220     		movs	r0, #2
 742              	.LVL45:
 700:Drivers/STM32F3xx_HAL_Driver/Src/stm32f3xx_hal_i2s.c **** 
 743              		.loc 1 700 5 view .LVU248
 744 00ac FAE7     		b	.L41
 745              	.L55:
 746 00ae 00BF     		.align	2
 747              	.L54:
 748 00b0 00000000 		.word	I2S_DMATxHalfCplt
 749 00b4 00000000 		.word	I2S_DMATxCplt
 750 00b8 00000000 		.word	I2S_DMAError
 751              		.cfi_endproc
 752              	.LFE134:
 754              		.section	.text.HAL_I2S_Receive_DMA,"ax",%progbits
 755              		.align	1
 756              		.global	HAL_I2S_Receive_DMA
ARM GAS  C:\Users\SHINRA~1\AppData\Local\Temp\ccBXzGic.s 			page 41


 757              		.syntax unified
 758              		.thumb
 759              		.thumb_func
 760              		.fpu fpv4-sp-d16
 762              	HAL_I2S_Receive_DMA:
 763              	.LVL46:
 764              	.LFB135:
 754:Drivers/STM32F3xx_HAL_Driver/Src/stm32f3xx_hal_i2s.c ****   uint32_t *tmp;
 765              		.loc 1 754 1 is_stmt 1 view -0
 766              		.cfi_startproc
 767              		@ args = 0, pretend = 0, frame = 8
 768              		@ frame_needed = 0, uses_anonymous_args = 0
 755:Drivers/STM32F3xx_HAL_Driver/Src/stm32f3xx_hal_i2s.c ****   
 769              		.loc 1 755 3 view .LVU250
 757:Drivers/STM32F3xx_HAL_Driver/Src/stm32f3xx_hal_i2s.c ****   {
 770              		.loc 1 757 3 view .LVU251
 757:Drivers/STM32F3xx_HAL_Driver/Src/stm32f3xx_hal_i2s.c ****   {
 771              		.loc 1 757 5 is_stmt 0 view .LVU252
 772 0000 0029     		cmp	r1, #0
 773 0002 59D0     		beq	.L63
 754:Drivers/STM32F3xx_HAL_Driver/Src/stm32f3xx_hal_i2s.c ****   uint32_t *tmp;
 774              		.loc 1 754 1 discriminator 1 view .LVU253
 775 0004 10B5     		push	{r4, lr}
 776              	.LCFI6:
 777              		.cfi_def_cfa_offset 8
 778              		.cfi_offset 4, -8
 779              		.cfi_offset 14, -4
 780 0006 82B0     		sub	sp, sp, #8
 781              	.LCFI7:
 782              		.cfi_def_cfa_offset 16
 783 0008 0446     		mov	r4, r0
 784 000a 1346     		mov	r3, r2
 785 000c 0A46     		mov	r2, r1
 786              	.LVL47:
 757:Drivers/STM32F3xx_HAL_Driver/Src/stm32f3xx_hal_i2s.c ****   {
 787              		.loc 1 757 22 discriminator 1 view .LVU254
 788 000e 002B     		cmp	r3, #0
 789 0010 54D0     		beq	.L64
 762:Drivers/STM32F3xx_HAL_Driver/Src/stm32f3xx_hal_i2s.c ****   {
 790              		.loc 1 762 3 is_stmt 1 view .LVU255
 762:Drivers/STM32F3xx_HAL_Driver/Src/stm32f3xx_hal_i2s.c ****   {
 791              		.loc 1 762 10 is_stmt 0 view .LVU256
 792 0012 90F83D10 		ldrb	r1, [r0, #61]	@ zero_extendqisi2
 793              	.LVL48:
 762:Drivers/STM32F3xx_HAL_Driver/Src/stm32f3xx_hal_i2s.c ****   {
 794              		.loc 1 762 10 view .LVU257
 795 0016 C9B2     		uxtb	r1, r1
 762:Drivers/STM32F3xx_HAL_Driver/Src/stm32f3xx_hal_i2s.c ****   {
 796              		.loc 1 762 5 view .LVU258
 797 0018 0129     		cmp	r1, #1
 798 001a 52D1     		bne	.L65
 764:Drivers/STM32F3xx_HAL_Driver/Src/stm32f3xx_hal_i2s.c ****     if(((hi2s->Instance->I2SCFGR & (SPI_I2SCFGR_DATLEN | SPI_I2SCFGR_CHLEN)) == I2S_DATAFORMAT_24B)
 799              		.loc 1 764 5 is_stmt 1 view .LVU259
 764:Drivers/STM32F3xx_HAL_Driver/Src/stm32f3xx_hal_i2s.c ****     if(((hi2s->Instance->I2SCFGR & (SPI_I2SCFGR_DATLEN | SPI_I2SCFGR_CHLEN)) == I2S_DATAFORMAT_24B)
 800              		.loc 1 764 22 is_stmt 0 view .LVU260
 801 001c C262     		str	r2, [r0, #44]
 765:Drivers/STM32F3xx_HAL_Driver/Src/stm32f3xx_hal_i2s.c ****       ((hi2s->Instance->I2SCFGR & (SPI_I2SCFGR_DATLEN | SPI_I2SCFGR_CHLEN)) == I2S_DATAFORMAT_32B))
ARM GAS  C:\Users\SHINRA~1\AppData\Local\Temp\ccBXzGic.s 			page 42


 802              		.loc 1 765 5 is_stmt 1 view .LVU261
 765:Drivers/STM32F3xx_HAL_Driver/Src/stm32f3xx_hal_i2s.c ****       ((hi2s->Instance->I2SCFGR & (SPI_I2SCFGR_DATLEN | SPI_I2SCFGR_CHLEN)) == I2S_DATAFORMAT_32B))
 803              		.loc 1 765 14 is_stmt 0 view .LVU262
 804 001e 0068     		ldr	r0, [r0]
 805              	.LVL49:
 765:Drivers/STM32F3xx_HAL_Driver/Src/stm32f3xx_hal_i2s.c ****       ((hi2s->Instance->I2SCFGR & (SPI_I2SCFGR_DATLEN | SPI_I2SCFGR_CHLEN)) == I2S_DATAFORMAT_32B))
 806              		.loc 1 765 24 view .LVU263
 807 0020 C169     		ldr	r1, [r0, #28]
 765:Drivers/STM32F3xx_HAL_Driver/Src/stm32f3xx_hal_i2s.c ****       ((hi2s->Instance->I2SCFGR & (SPI_I2SCFGR_DATLEN | SPI_I2SCFGR_CHLEN)) == I2S_DATAFORMAT_32B))
 808              		.loc 1 765 34 view .LVU264
 809 0022 01F00701 		and	r1, r1, #7
 765:Drivers/STM32F3xx_HAL_Driver/Src/stm32f3xx_hal_i2s.c ****       ((hi2s->Instance->I2SCFGR & (SPI_I2SCFGR_DATLEN | SPI_I2SCFGR_CHLEN)) == I2S_DATAFORMAT_32B))
 810              		.loc 1 765 7 view .LVU265
 811 0026 0329     		cmp	r1, #3
 812 0028 07D0     		beq	.L58
 766:Drivers/STM32F3xx_HAL_Driver/Src/stm32f3xx_hal_i2s.c ****     {
 813              		.loc 1 766 23 discriminator 1 view .LVU266
 814 002a C169     		ldr	r1, [r0, #28]
 766:Drivers/STM32F3xx_HAL_Driver/Src/stm32f3xx_hal_i2s.c ****     {
 815              		.loc 1 766 33 discriminator 1 view .LVU267
 816 002c 01F00701 		and	r1, r1, #7
 765:Drivers/STM32F3xx_HAL_Driver/Src/stm32f3xx_hal_i2s.c ****       ((hi2s->Instance->I2SCFGR & (SPI_I2SCFGR_DATLEN | SPI_I2SCFGR_CHLEN)) == I2S_DATAFORMAT_32B))
 817              		.loc 1 765 100 discriminator 1 view .LVU268
 818 0030 0529     		cmp	r1, #5
 819 0032 02D0     		beq	.L58
 773:Drivers/STM32F3xx_HAL_Driver/Src/stm32f3xx_hal_i2s.c ****       hi2s->RxXferCount = Size;
 820              		.loc 1 773 7 is_stmt 1 view .LVU269
 773:Drivers/STM32F3xx_HAL_Driver/Src/stm32f3xx_hal_i2s.c ****       hi2s->RxXferCount = Size;
 821              		.loc 1 773 24 is_stmt 0 view .LVU270
 822 0034 2386     		strh	r3, [r4, #48]	@ movhi
 774:Drivers/STM32F3xx_HAL_Driver/Src/stm32f3xx_hal_i2s.c ****     }
 823              		.loc 1 774 7 is_stmt 1 view .LVU271
 774:Drivers/STM32F3xx_HAL_Driver/Src/stm32f3xx_hal_i2s.c ****     }
 824              		.loc 1 774 25 is_stmt 0 view .LVU272
 825 0036 6386     		strh	r3, [r4, #50]	@ movhi
 826 0038 03E0     		b	.L60
 827              	.L58:
 768:Drivers/STM32F3xx_HAL_Driver/Src/stm32f3xx_hal_i2s.c ****       hi2s->RxXferCount = (Size << 1U);
 828              		.loc 1 768 7 is_stmt 1 view .LVU273
 768:Drivers/STM32F3xx_HAL_Driver/Src/stm32f3xx_hal_i2s.c ****       hi2s->RxXferCount = (Size << 1U);
 829              		.loc 1 768 32 is_stmt 0 view .LVU274
 830 003a 5B00     		lsls	r3, r3, #1
 831 003c 9BB2     		uxth	r3, r3
 768:Drivers/STM32F3xx_HAL_Driver/Src/stm32f3xx_hal_i2s.c ****       hi2s->RxXferCount = (Size << 1U);
 832              		.loc 1 768 24 view .LVU275
 833 003e 2386     		strh	r3, [r4, #48]	@ movhi
 769:Drivers/STM32F3xx_HAL_Driver/Src/stm32f3xx_hal_i2s.c ****     }
 834              		.loc 1 769 7 is_stmt 1 view .LVU276
 769:Drivers/STM32F3xx_HAL_Driver/Src/stm32f3xx_hal_i2s.c ****     }
 835              		.loc 1 769 25 is_stmt 0 view .LVU277
 836 0040 6386     		strh	r3, [r4, #50]	@ movhi
 837              	.L60:
 777:Drivers/STM32F3xx_HAL_Driver/Src/stm32f3xx_hal_i2s.c ****     
 838              		.loc 1 777 5 is_stmt 1 view .LVU278
 777:Drivers/STM32F3xx_HAL_Driver/Src/stm32f3xx_hal_i2s.c ****     
 839              		.loc 1 777 5 view .LVU279
 840 0042 94F83C30 		ldrb	r3, [r4, #60]	@ zero_extendqisi2
ARM GAS  C:\Users\SHINRA~1\AppData\Local\Temp\ccBXzGic.s 			page 43


 841 0046 DBB2     		uxtb	r3, r3
 842 0048 012B     		cmp	r3, #1
 843 004a 3CD0     		beq	.L66
 777:Drivers/STM32F3xx_HAL_Driver/Src/stm32f3xx_hal_i2s.c ****     
 844              		.loc 1 777 5 discriminator 2 view .LVU280
 845 004c 0123     		movs	r3, #1
 846 004e 84F83C30 		strb	r3, [r4, #60]
 777:Drivers/STM32F3xx_HAL_Driver/Src/stm32f3xx_hal_i2s.c ****     
 847              		.loc 1 777 5 discriminator 2 view .LVU281
 779:Drivers/STM32F3xx_HAL_Driver/Src/stm32f3xx_hal_i2s.c ****     hi2s->State = HAL_I2S_STATE_BUSY_RX;
 848              		.loc 1 779 5 discriminator 2 view .LVU282
 779:Drivers/STM32F3xx_HAL_Driver/Src/stm32f3xx_hal_i2s.c ****     hi2s->State = HAL_I2S_STATE_BUSY_RX;
 849              		.loc 1 779 21 is_stmt 0 discriminator 2 view .LVU283
 850 0052 0023     		movs	r3, #0
 851 0054 2364     		str	r3, [r4, #64]
 780:Drivers/STM32F3xx_HAL_Driver/Src/stm32f3xx_hal_i2s.c ****    
 852              		.loc 1 780 5 is_stmt 1 discriminator 2 view .LVU284
 780:Drivers/STM32F3xx_HAL_Driver/Src/stm32f3xx_hal_i2s.c ****    
 853              		.loc 1 780 17 is_stmt 0 discriminator 2 view .LVU285
 854 0056 0423     		movs	r3, #4
 855 0058 84F83D30 		strb	r3, [r4, #61]
 783:Drivers/STM32F3xx_HAL_Driver/Src/stm32f3xx_hal_i2s.c **** 
 856              		.loc 1 783 5 is_stmt 1 discriminator 2 view .LVU286
 783:Drivers/STM32F3xx_HAL_Driver/Src/stm32f3xx_hal_i2s.c **** 
 857              		.loc 1 783 9 is_stmt 0 discriminator 2 view .LVU287
 858 005c A36B     		ldr	r3, [r4, #56]
 783:Drivers/STM32F3xx_HAL_Driver/Src/stm32f3xx_hal_i2s.c **** 
 859              		.loc 1 783 40 discriminator 2 view .LVU288
 860 005e 1B49     		ldr	r1, .L72
 861 0060 D962     		str	r1, [r3, #44]
 786:Drivers/STM32F3xx_HAL_Driver/Src/stm32f3xx_hal_i2s.c ****     
 862              		.loc 1 786 5 is_stmt 1 discriminator 2 view .LVU289
 786:Drivers/STM32F3xx_HAL_Driver/Src/stm32f3xx_hal_i2s.c ****     
 863              		.loc 1 786 9 is_stmt 0 discriminator 2 view .LVU290
 864 0062 A36B     		ldr	r3, [r4, #56]
 786:Drivers/STM32F3xx_HAL_Driver/Src/stm32f3xx_hal_i2s.c ****     
 865              		.loc 1 786 36 discriminator 2 view .LVU291
 866 0064 1A49     		ldr	r1, .L72+4
 867 0066 9962     		str	r1, [r3, #40]
 789:Drivers/STM32F3xx_HAL_Driver/Src/stm32f3xx_hal_i2s.c ****     
 868              		.loc 1 789 5 is_stmt 1 discriminator 2 view .LVU292
 789:Drivers/STM32F3xx_HAL_Driver/Src/stm32f3xx_hal_i2s.c ****     
 869              		.loc 1 789 9 is_stmt 0 discriminator 2 view .LVU293
 870 0068 A36B     		ldr	r3, [r4, #56]
 789:Drivers/STM32F3xx_HAL_Driver/Src/stm32f3xx_hal_i2s.c ****     
 871              		.loc 1 789 37 discriminator 2 view .LVU294
 872 006a 1A49     		ldr	r1, .L72+8
 873 006c 1963     		str	r1, [r3, #48]
 792:Drivers/STM32F3xx_HAL_Driver/Src/stm32f3xx_hal_i2s.c ****     {
 874              		.loc 1 792 5 is_stmt 1 discriminator 2 view .LVU295
 792:Drivers/STM32F3xx_HAL_Driver/Src/stm32f3xx_hal_i2s.c ****     {
 875              		.loc 1 792 13 is_stmt 0 discriminator 2 view .LVU296
 876 006e 2168     		ldr	r1, [r4]
 792:Drivers/STM32F3xx_HAL_Driver/Src/stm32f3xx_hal_i2s.c ****     {
 877              		.loc 1 792 23 discriminator 2 view .LVU297
 878 0070 CB69     		ldr	r3, [r1, #28]
 792:Drivers/STM32F3xx_HAL_Driver/Src/stm32f3xx_hal_i2s.c ****     {
ARM GAS  C:\Users\SHINRA~1\AppData\Local\Temp\ccBXzGic.s 			page 44


 879              		.loc 1 792 33 discriminator 2 view .LVU298
 880 0072 03F44073 		and	r3, r3, #768
 792:Drivers/STM32F3xx_HAL_Driver/Src/stm32f3xx_hal_i2s.c ****     {
 881              		.loc 1 792 7 discriminator 2 view .LVU299
 882 0076 B3F5407F 		cmp	r3, #768
 883 007a 17D0     		beq	.L71
 884              	.L61:
 796:Drivers/STM32F3xx_HAL_Driver/Src/stm32f3xx_hal_i2s.c ****     }
 885              		.loc 1 796 7 is_stmt 1 discriminator 1 view .LVU300
 800:Drivers/STM32F3xx_HAL_Driver/Src/stm32f3xx_hal_i2s.c ****     HAL_DMA_Start_IT(hi2s->hdmarx, (uint32_t)&hi2s->Instance->DR, *(uint32_t*)tmp, hi2s->RxXferSize
 886              		.loc 1 800 5 discriminator 1 view .LVU301
 887              	.LVL50:
 801:Drivers/STM32F3xx_HAL_Driver/Src/stm32f3xx_hal_i2s.c ****     
 888              		.loc 1 801 5 discriminator 1 view .LVU302
 801:Drivers/STM32F3xx_HAL_Driver/Src/stm32f3xx_hal_i2s.c ****     
 889              		.loc 1 801 88 is_stmt 0 discriminator 1 view .LVU303
 890 007c 238E     		ldrh	r3, [r4, #48]
 801:Drivers/STM32F3xx_HAL_Driver/Src/stm32f3xx_hal_i2s.c ****     
 891              		.loc 1 801 5 discriminator 1 view .LVU304
 892 007e 9BB2     		uxth	r3, r3
 893 0080 0C31     		adds	r1, r1, #12
 894 0082 A06B     		ldr	r0, [r4, #56]
 895 0084 FFF7FEFF 		bl	HAL_DMA_Start_IT
 896              	.LVL51:
 804:Drivers/STM32F3xx_HAL_Driver/Src/stm32f3xx_hal_i2s.c ****     {
 897              		.loc 1 804 5 is_stmt 1 discriminator 1 view .LVU305
 804:Drivers/STM32F3xx_HAL_Driver/Src/stm32f3xx_hal_i2s.c ****     {
 898              		.loc 1 804 13 is_stmt 0 discriminator 1 view .LVU306
 899 0088 2368     		ldr	r3, [r4]
 804:Drivers/STM32F3xx_HAL_Driver/Src/stm32f3xx_hal_i2s.c ****     {
 900              		.loc 1 804 23 discriminator 1 view .LVU307
 901 008a DA69     		ldr	r2, [r3, #28]
 804:Drivers/STM32F3xx_HAL_Driver/Src/stm32f3xx_hal_i2s.c ****     {
 902              		.loc 1 804 7 discriminator 1 view .LVU308
 903 008c 12F4806F 		tst	r2, #1024
 904 0090 03D1     		bne	.L62
 807:Drivers/STM32F3xx_HAL_Driver/Src/stm32f3xx_hal_i2s.c ****     }
 905              		.loc 1 807 7 is_stmt 1 view .LVU309
 906 0092 DA69     		ldr	r2, [r3, #28]
 907 0094 42F48062 		orr	r2, r2, #1024
 908 0098 DA61     		str	r2, [r3, #28]
 909              	.L62:
 811:Drivers/STM32F3xx_HAL_Driver/Src/stm32f3xx_hal_i2s.c **** 
 910              		.loc 1 811 5 view .LVU310
 811:Drivers/STM32F3xx_HAL_Driver/Src/stm32f3xx_hal_i2s.c **** 
 911              		.loc 1 811 9 is_stmt 0 view .LVU311
 912 009a 2268     		ldr	r2, [r4]
 811:Drivers/STM32F3xx_HAL_Driver/Src/stm32f3xx_hal_i2s.c **** 
 913              		.loc 1 811 25 view .LVU312
 914 009c 5368     		ldr	r3, [r2, #4]
 915 009e 43F00103 		orr	r3, r3, #1
 916 00a2 5360     		str	r3, [r2, #4]
 814:Drivers/STM32F3xx_HAL_Driver/Src/stm32f3xx_hal_i2s.c **** 
 917              		.loc 1 814 5 is_stmt 1 view .LVU313
 814:Drivers/STM32F3xx_HAL_Driver/Src/stm32f3xx_hal_i2s.c **** 
 918              		.loc 1 814 5 view .LVU314
 919 00a4 0020     		movs	r0, #0
ARM GAS  C:\Users\SHINRA~1\AppData\Local\Temp\ccBXzGic.s 			page 45


 920 00a6 84F83C00 		strb	r0, [r4, #60]
 814:Drivers/STM32F3xx_HAL_Driver/Src/stm32f3xx_hal_i2s.c **** 
 921              		.loc 1 814 5 view .LVU315
 816:Drivers/STM32F3xx_HAL_Driver/Src/stm32f3xx_hal_i2s.c ****   }
 922              		.loc 1 816 5 view .LVU316
 816:Drivers/STM32F3xx_HAL_Driver/Src/stm32f3xx_hal_i2s.c ****   }
 923              		.loc 1 816 12 is_stmt 0 view .LVU317
 924 00aa 08E0     		b	.L57
 925              	.LVL52:
 926              	.L71:
 796:Drivers/STM32F3xx_HAL_Driver/Src/stm32f3xx_hal_i2s.c ****     }
 927              		.loc 1 796 7 is_stmt 1 view .LVU318
 928              	.LBB2:
 796:Drivers/STM32F3xx_HAL_Driver/Src/stm32f3xx_hal_i2s.c ****     }
 929              		.loc 1 796 7 view .LVU319
 796:Drivers/STM32F3xx_HAL_Driver/Src/stm32f3xx_hal_i2s.c ****     }
 930              		.loc 1 796 7 view .LVU320
 931 00ac CB68     		ldr	r3, [r1, #12]
 932 00ae 0193     		str	r3, [sp, #4]
 796:Drivers/STM32F3xx_HAL_Driver/Src/stm32f3xx_hal_i2s.c ****     }
 933              		.loc 1 796 7 view .LVU321
 934 00b0 8B68     		ldr	r3, [r1, #8]
 935 00b2 0193     		str	r3, [sp, #4]
 796:Drivers/STM32F3xx_HAL_Driver/Src/stm32f3xx_hal_i2s.c ****     }
 936              		.loc 1 796 7 view .LVU322
 937 00b4 019B     		ldr	r3, [sp, #4]
 938 00b6 E1E7     		b	.L61
 939              	.LVL53:
 940              	.L63:
 941              	.LCFI8:
 942              		.cfi_def_cfa_offset 0
 943              		.cfi_restore 4
 944              		.cfi_restore 14
 796:Drivers/STM32F3xx_HAL_Driver/Src/stm32f3xx_hal_i2s.c ****     }
 945              		.loc 1 796 7 is_stmt 0 view .LVU323
 946              	.LBE2:
 759:Drivers/STM32F3xx_HAL_Driver/Src/stm32f3xx_hal_i2s.c ****   }
 947              		.loc 1 759 13 view .LVU324
 948 00b8 0120     		movs	r0, #1
 949              	.LVL54:
 822:Drivers/STM32F3xx_HAL_Driver/Src/stm32f3xx_hal_i2s.c **** 
 950              		.loc 1 822 1 view .LVU325
 951 00ba 7047     		bx	lr
 952              	.LVL55:
 953              	.L64:
 954              	.LCFI9:
 955              		.cfi_def_cfa_offset 16
 956              		.cfi_offset 4, -8
 957              		.cfi_offset 14, -4
 759:Drivers/STM32F3xx_HAL_Driver/Src/stm32f3xx_hal_i2s.c ****   }
 958              		.loc 1 759 13 view .LVU326
 959 00bc 0120     		movs	r0, #1
 960              	.LVL56:
 961              	.L57:
 822:Drivers/STM32F3xx_HAL_Driver/Src/stm32f3xx_hal_i2s.c **** 
 962              		.loc 1 822 1 view .LVU327
 963 00be 02B0     		add	sp, sp, #8
ARM GAS  C:\Users\SHINRA~1\AppData\Local\Temp\ccBXzGic.s 			page 46


 964              	.LCFI10:
 965              		.cfi_remember_state
 966              		.cfi_def_cfa_offset 8
 967              		@ sp needed
 968 00c0 10BD     		pop	{r4, pc}
 969              	.LVL57:
 970              	.L65:
 971              	.LCFI11:
 972              		.cfi_restore_state
 820:Drivers/STM32F3xx_HAL_Driver/Src/stm32f3xx_hal_i2s.c ****   }
 973              		.loc 1 820 12 view .LVU328
 974 00c2 0220     		movs	r0, #2
 975              	.LVL58:
 820:Drivers/STM32F3xx_HAL_Driver/Src/stm32f3xx_hal_i2s.c ****   }
 976              		.loc 1 820 12 view .LVU329
 977 00c4 FBE7     		b	.L57
 978              	.L66:
 777:Drivers/STM32F3xx_HAL_Driver/Src/stm32f3xx_hal_i2s.c ****     
 979              		.loc 1 777 5 view .LVU330
 980 00c6 0220     		movs	r0, #2
 981 00c8 F9E7     		b	.L57
 982              	.L73:
 983 00ca 00BF     		.align	2
 984              	.L72:
 985 00cc 00000000 		.word	I2S_DMARxHalfCplt
 986 00d0 00000000 		.word	I2S_DMARxCplt
 987 00d4 00000000 		.word	I2S_DMAError
 988              		.cfi_endproc
 989              	.LFE135:
 991              		.section	.text.HAL_I2S_DMAPause,"ax",%progbits
 992              		.align	1
 993              		.weak	HAL_I2S_DMAPause
 994              		.syntax unified
 995              		.thumb
 996              		.thumb_func
 997              		.fpu fpv4-sp-d16
 999              	HAL_I2S_DMAPause:
 1000              	.LVL59:
 1001              	.LFB136:
 831:Drivers/STM32F3xx_HAL_Driver/Src/stm32f3xx_hal_i2s.c ****   /* Process Locked */
 1002              		.loc 1 831 1 is_stmt 1 view -0
 1003              		.cfi_startproc
 1004              		@ args = 0, pretend = 0, frame = 0
 1005              		@ frame_needed = 0, uses_anonymous_args = 0
 1006              		@ link register save eliminated.
 833:Drivers/STM32F3xx_HAL_Driver/Src/stm32f3xx_hal_i2s.c ****   
 1007              		.loc 1 833 3 view .LVU332
 833:Drivers/STM32F3xx_HAL_Driver/Src/stm32f3xx_hal_i2s.c ****   
 1008              		.loc 1 833 3 view .LVU333
 1009 0000 90F83C30 		ldrb	r3, [r0, #60]	@ zero_extendqisi2
 1010 0004 DBB2     		uxtb	r3, r3
 1011 0006 012B     		cmp	r3, #1
 1012 0008 1DD0     		beq	.L78
 833:Drivers/STM32F3xx_HAL_Driver/Src/stm32f3xx_hal_i2s.c ****   
 1013              		.loc 1 833 3 discriminator 2 view .LVU334
 1014 000a 0123     		movs	r3, #1
 1015 000c 80F83C30 		strb	r3, [r0, #60]
ARM GAS  C:\Users\SHINRA~1\AppData\Local\Temp\ccBXzGic.s 			page 47


 833:Drivers/STM32F3xx_HAL_Driver/Src/stm32f3xx_hal_i2s.c ****   
 1016              		.loc 1 833 3 discriminator 2 view .LVU335
 835:Drivers/STM32F3xx_HAL_Driver/Src/stm32f3xx_hal_i2s.c ****   {
 1017              		.loc 1 835 3 discriminator 2 view .LVU336
 835:Drivers/STM32F3xx_HAL_Driver/Src/stm32f3xx_hal_i2s.c ****   {
 1018              		.loc 1 835 10 is_stmt 0 discriminator 2 view .LVU337
 1019 0010 90F83D30 		ldrb	r3, [r0, #61]	@ zero_extendqisi2
 1020 0014 DBB2     		uxtb	r3, r3
 835:Drivers/STM32F3xx_HAL_Driver/Src/stm32f3xx_hal_i2s.c ****   {
 1021              		.loc 1 835 5 discriminator 2 view .LVU338
 1022 0016 032B     		cmp	r3, #3
 1023 0018 09D0     		beq	.L79
 840:Drivers/STM32F3xx_HAL_Driver/Src/stm32f3xx_hal_i2s.c ****   {
 1024              		.loc 1 840 8 is_stmt 1 view .LVU339
 840:Drivers/STM32F3xx_HAL_Driver/Src/stm32f3xx_hal_i2s.c ****   {
 1025              		.loc 1 840 15 is_stmt 0 view .LVU340
 1026 001a 90F83D30 		ldrb	r3, [r0, #61]	@ zero_extendqisi2
 1027 001e DBB2     		uxtb	r3, r3
 840:Drivers/STM32F3xx_HAL_Driver/Src/stm32f3xx_hal_i2s.c ****   {
 1028              		.loc 1 840 10 view .LVU341
 1029 0020 042B     		cmp	r3, #4
 1030 0022 0AD0     		beq	.L80
 1031              	.L77:
 847:Drivers/STM32F3xx_HAL_Driver/Src/stm32f3xx_hal_i2s.c ****   
 1032              		.loc 1 847 3 is_stmt 1 view .LVU342
 847:Drivers/STM32F3xx_HAL_Driver/Src/stm32f3xx_hal_i2s.c ****   
 1033              		.loc 1 847 3 view .LVU343
 1034 0024 0023     		movs	r3, #0
 1035 0026 80F83C30 		strb	r3, [r0, #60]
 847:Drivers/STM32F3xx_HAL_Driver/Src/stm32f3xx_hal_i2s.c ****   
 1036              		.loc 1 847 3 view .LVU344
 849:Drivers/STM32F3xx_HAL_Driver/Src/stm32f3xx_hal_i2s.c **** }
 1037              		.loc 1 849 3 view .LVU345
 849:Drivers/STM32F3xx_HAL_Driver/Src/stm32f3xx_hal_i2s.c **** }
 1038              		.loc 1 849 10 is_stmt 0 view .LVU346
 1039 002a 1846     		mov	r0, r3
 1040              	.LVL60:
 849:Drivers/STM32F3xx_HAL_Driver/Src/stm32f3xx_hal_i2s.c **** }
 1041              		.loc 1 849 10 view .LVU347
 1042 002c 7047     		bx	lr
 1043              	.LVL61:
 1044              	.L79:
 838:Drivers/STM32F3xx_HAL_Driver/Src/stm32f3xx_hal_i2s.c ****   }
 1045              		.loc 1 838 5 is_stmt 1 view .LVU348
 838:Drivers/STM32F3xx_HAL_Driver/Src/stm32f3xx_hal_i2s.c ****   }
 1046              		.loc 1 838 9 is_stmt 0 view .LVU349
 1047 002e 0268     		ldr	r2, [r0]
 838:Drivers/STM32F3xx_HAL_Driver/Src/stm32f3xx_hal_i2s.c ****   }
 1048              		.loc 1 838 25 view .LVU350
 1049 0030 5368     		ldr	r3, [r2, #4]
 1050 0032 23F00203 		bic	r3, r3, #2
 1051 0036 5360     		str	r3, [r2, #4]
 1052 0038 F4E7     		b	.L77
 1053              	.L80:
 843:Drivers/STM32F3xx_HAL_Driver/Src/stm32f3xx_hal_i2s.c ****   }
 1054              		.loc 1 843 5 is_stmt 1 view .LVU351
 843:Drivers/STM32F3xx_HAL_Driver/Src/stm32f3xx_hal_i2s.c ****   }
ARM GAS  C:\Users\SHINRA~1\AppData\Local\Temp\ccBXzGic.s 			page 48


 1055              		.loc 1 843 9 is_stmt 0 view .LVU352
 1056 003a 0268     		ldr	r2, [r0]
 843:Drivers/STM32F3xx_HAL_Driver/Src/stm32f3xx_hal_i2s.c ****   }
 1057              		.loc 1 843 25 view .LVU353
 1058 003c 5368     		ldr	r3, [r2, #4]
 1059 003e 23F00103 		bic	r3, r3, #1
 1060 0042 5360     		str	r3, [r2, #4]
 1061 0044 EEE7     		b	.L77
 1062              	.L78:
 833:Drivers/STM32F3xx_HAL_Driver/Src/stm32f3xx_hal_i2s.c ****   
 1063              		.loc 1 833 3 view .LVU354
 1064 0046 0220     		movs	r0, #2
 1065              	.LVL62:
 850:Drivers/STM32F3xx_HAL_Driver/Src/stm32f3xx_hal_i2s.c **** 
 1066              		.loc 1 850 1 view .LVU355
 1067 0048 7047     		bx	lr
 1068              		.cfi_endproc
 1069              	.LFE136:
 1071              		.section	.text.HAL_I2S_DMAResume,"ax",%progbits
 1072              		.align	1
 1073              		.weak	HAL_I2S_DMAResume
 1074              		.syntax unified
 1075              		.thumb
 1076              		.thumb_func
 1077              		.fpu fpv4-sp-d16
 1079              	HAL_I2S_DMAResume:
 1080              	.LVL63:
 1081              	.LFB137:
 859:Drivers/STM32F3xx_HAL_Driver/Src/stm32f3xx_hal_i2s.c ****   /* Process Locked */
 1082              		.loc 1 859 1 is_stmt 1 view -0
 1083              		.cfi_startproc
 1084              		@ args = 0, pretend = 0, frame = 0
 1085              		@ frame_needed = 0, uses_anonymous_args = 0
 1086              		@ link register save eliminated.
 861:Drivers/STM32F3xx_HAL_Driver/Src/stm32f3xx_hal_i2s.c ****   
 1087              		.loc 1 861 3 view .LVU357
 861:Drivers/STM32F3xx_HAL_Driver/Src/stm32f3xx_hal_i2s.c ****   
 1088              		.loc 1 861 3 view .LVU358
 1089 0000 90F83C30 		ldrb	r3, [r0, #60]	@ zero_extendqisi2
 1090 0004 DBB2     		uxtb	r3, r3
 1091 0006 012B     		cmp	r3, #1
 1092 0008 26D0     		beq	.L86
 861:Drivers/STM32F3xx_HAL_Driver/Src/stm32f3xx_hal_i2s.c ****   
 1093              		.loc 1 861 3 discriminator 2 view .LVU359
 1094 000a 0123     		movs	r3, #1
 1095 000c 80F83C30 		strb	r3, [r0, #60]
 861:Drivers/STM32F3xx_HAL_Driver/Src/stm32f3xx_hal_i2s.c ****   
 1096              		.loc 1 861 3 discriminator 2 view .LVU360
 863:Drivers/STM32F3xx_HAL_Driver/Src/stm32f3xx_hal_i2s.c ****   {
 1097              		.loc 1 863 3 discriminator 2 view .LVU361
 863:Drivers/STM32F3xx_HAL_Driver/Src/stm32f3xx_hal_i2s.c ****   {
 1098              		.loc 1 863 10 is_stmt 0 discriminator 2 view .LVU362
 1099 0010 90F83D30 		ldrb	r3, [r0, #61]	@ zero_extendqisi2
 1100 0014 DBB2     		uxtb	r3, r3
 863:Drivers/STM32F3xx_HAL_Driver/Src/stm32f3xx_hal_i2s.c ****   {
 1101              		.loc 1 863 5 discriminator 2 view .LVU363
 1102 0016 032B     		cmp	r3, #3
ARM GAS  C:\Users\SHINRA~1\AppData\Local\Temp\ccBXzGic.s 			page 49


 1103 0018 12D0     		beq	.L87
 868:Drivers/STM32F3xx_HAL_Driver/Src/stm32f3xx_hal_i2s.c ****   {
 1104              		.loc 1 868 8 is_stmt 1 view .LVU364
 868:Drivers/STM32F3xx_HAL_Driver/Src/stm32f3xx_hal_i2s.c ****   {
 1105              		.loc 1 868 15 is_stmt 0 view .LVU365
 1106 001a 90F83D30 		ldrb	r3, [r0, #61]	@ zero_extendqisi2
 1107 001e DBB2     		uxtb	r3, r3
 868:Drivers/STM32F3xx_HAL_Driver/Src/stm32f3xx_hal_i2s.c ****   {
 1108              		.loc 1 868 10 view .LVU366
 1109 0020 042B     		cmp	r3, #4
 1110 0022 13D0     		beq	.L88
 1111              	.L84:
 875:Drivers/STM32F3xx_HAL_Driver/Src/stm32f3xx_hal_i2s.c ****   {
 1112              		.loc 1 875 3 is_stmt 1 view .LVU367
 875:Drivers/STM32F3xx_HAL_Driver/Src/stm32f3xx_hal_i2s.c ****   {
 1113              		.loc 1 875 12 is_stmt 0 view .LVU368
 1114 0024 0368     		ldr	r3, [r0]
 875:Drivers/STM32F3xx_HAL_Driver/Src/stm32f3xx_hal_i2s.c ****   {
 1115              		.loc 1 875 22 view .LVU369
 1116 0026 DA69     		ldr	r2, [r3, #28]
 875:Drivers/STM32F3xx_HAL_Driver/Src/stm32f3xx_hal_i2s.c ****   {
 1117              		.loc 1 875 6 view .LVU370
 1118 0028 12F4806F 		tst	r2, #1024
 1119 002c 03D1     		bne	.L85
 878:Drivers/STM32F3xx_HAL_Driver/Src/stm32f3xx_hal_i2s.c ****   }
 1120              		.loc 1 878 5 is_stmt 1 view .LVU371
 1121 002e DA69     		ldr	r2, [r3, #28]
 1122 0030 42F48062 		orr	r2, r2, #1024
 1123 0034 DA61     		str	r2, [r3, #28]
 1124              	.L85:
 882:Drivers/STM32F3xx_HAL_Driver/Src/stm32f3xx_hal_i2s.c ****   
 1125              		.loc 1 882 3 view .LVU372
 882:Drivers/STM32F3xx_HAL_Driver/Src/stm32f3xx_hal_i2s.c ****   
 1126              		.loc 1 882 3 view .LVU373
 1127 0036 0023     		movs	r3, #0
 1128 0038 80F83C30 		strb	r3, [r0, #60]
 882:Drivers/STM32F3xx_HAL_Driver/Src/stm32f3xx_hal_i2s.c ****   
 1129              		.loc 1 882 3 view .LVU374
 884:Drivers/STM32F3xx_HAL_Driver/Src/stm32f3xx_hal_i2s.c **** }
 1130              		.loc 1 884 3 view .LVU375
 884:Drivers/STM32F3xx_HAL_Driver/Src/stm32f3xx_hal_i2s.c **** }
 1131              		.loc 1 884 10 is_stmt 0 view .LVU376
 1132 003c 1846     		mov	r0, r3
 1133              	.LVL64:
 884:Drivers/STM32F3xx_HAL_Driver/Src/stm32f3xx_hal_i2s.c **** }
 1134              		.loc 1 884 10 view .LVU377
 1135 003e 7047     		bx	lr
 1136              	.LVL65:
 1137              	.L87:
 866:Drivers/STM32F3xx_HAL_Driver/Src/stm32f3xx_hal_i2s.c ****   }
 1138              		.loc 1 866 5 is_stmt 1 view .LVU378
 866:Drivers/STM32F3xx_HAL_Driver/Src/stm32f3xx_hal_i2s.c ****   }
 1139              		.loc 1 866 9 is_stmt 0 view .LVU379
 1140 0040 0268     		ldr	r2, [r0]
 866:Drivers/STM32F3xx_HAL_Driver/Src/stm32f3xx_hal_i2s.c ****   }
 1141              		.loc 1 866 25 view .LVU380
 1142 0042 5368     		ldr	r3, [r2, #4]
ARM GAS  C:\Users\SHINRA~1\AppData\Local\Temp\ccBXzGic.s 			page 50


 1143 0044 43F00203 		orr	r3, r3, #2
 1144 0048 5360     		str	r3, [r2, #4]
 1145 004a EBE7     		b	.L84
 1146              	.L88:
 871:Drivers/STM32F3xx_HAL_Driver/Src/stm32f3xx_hal_i2s.c ****   }
 1147              		.loc 1 871 5 is_stmt 1 view .LVU381
 871:Drivers/STM32F3xx_HAL_Driver/Src/stm32f3xx_hal_i2s.c ****   }
 1148              		.loc 1 871 9 is_stmt 0 view .LVU382
 1149 004c 0268     		ldr	r2, [r0]
 871:Drivers/STM32F3xx_HAL_Driver/Src/stm32f3xx_hal_i2s.c ****   }
 1150              		.loc 1 871 25 view .LVU383
 1151 004e 5368     		ldr	r3, [r2, #4]
 1152 0050 43F00103 		orr	r3, r3, #1
 1153 0054 5360     		str	r3, [r2, #4]
 1154 0056 E5E7     		b	.L84
 1155              	.L86:
 861:Drivers/STM32F3xx_HAL_Driver/Src/stm32f3xx_hal_i2s.c ****   
 1156              		.loc 1 861 3 view .LVU384
 1157 0058 0220     		movs	r0, #2
 1158              	.LVL66:
 885:Drivers/STM32F3xx_HAL_Driver/Src/stm32f3xx_hal_i2s.c **** 
 1159              		.loc 1 885 1 view .LVU385
 1160 005a 7047     		bx	lr
 1161              		.cfi_endproc
 1162              	.LFE137:
 1164              		.section	.text.HAL_I2S_DMAStop,"ax",%progbits
 1165              		.align	1
 1166              		.weak	HAL_I2S_DMAStop
 1167              		.syntax unified
 1168              		.thumb
 1169              		.thumb_func
 1170              		.fpu fpv4-sp-d16
 1172              	HAL_I2S_DMAStop:
 1173              	.LVL67:
 1174              	.LFB138:
 894:Drivers/STM32F3xx_HAL_Driver/Src/stm32f3xx_hal_i2s.c ****   /* Process Locked */
 1175              		.loc 1 894 1 is_stmt 1 view -0
 1176              		.cfi_startproc
 1177              		@ args = 0, pretend = 0, frame = 0
 1178              		@ frame_needed = 0, uses_anonymous_args = 0
 896:Drivers/STM32F3xx_HAL_Driver/Src/stm32f3xx_hal_i2s.c ****   
 1179              		.loc 1 896 3 view .LVU387
 896:Drivers/STM32F3xx_HAL_Driver/Src/stm32f3xx_hal_i2s.c ****   
 1180              		.loc 1 896 3 view .LVU388
 1181 0000 90F83C30 		ldrb	r3, [r0, #60]	@ zero_extendqisi2
 1182 0004 DBB2     		uxtb	r3, r3
 1183 0006 012B     		cmp	r3, #1
 1184 0008 30D0     		beq	.L93
 894:Drivers/STM32F3xx_HAL_Driver/Src/stm32f3xx_hal_i2s.c ****   /* Process Locked */
 1185              		.loc 1 894 1 is_stmt 0 discriminator 2 view .LVU389
 1186 000a 10B5     		push	{r4, lr}
 1187              	.LCFI12:
 1188              		.cfi_def_cfa_offset 8
 1189              		.cfi_offset 4, -8
 1190              		.cfi_offset 14, -4
 1191 000c 0446     		mov	r4, r0
 896:Drivers/STM32F3xx_HAL_Driver/Src/stm32f3xx_hal_i2s.c ****   
ARM GAS  C:\Users\SHINRA~1\AppData\Local\Temp\ccBXzGic.s 			page 51


 1192              		.loc 1 896 3 is_stmt 1 discriminator 2 view .LVU390
 1193 000e 0123     		movs	r3, #1
 1194 0010 80F83C30 		strb	r3, [r0, #60]
 896:Drivers/STM32F3xx_HAL_Driver/Src/stm32f3xx_hal_i2s.c ****   
 1195              		.loc 1 896 3 discriminator 2 view .LVU391
 899:Drivers/STM32F3xx_HAL_Driver/Src/stm32f3xx_hal_i2s.c ****   hi2s->Instance->CR2 &= (uint32_t)(~SPI_CR2_RXDMAEN);
 1196              		.loc 1 899 3 discriminator 2 view .LVU392
 899:Drivers/STM32F3xx_HAL_Driver/Src/stm32f3xx_hal_i2s.c ****   hi2s->Instance->CR2 &= (uint32_t)(~SPI_CR2_RXDMAEN);
 1197              		.loc 1 899 7 is_stmt 0 discriminator 2 view .LVU393
 1198 0014 0268     		ldr	r2, [r0]
 899:Drivers/STM32F3xx_HAL_Driver/Src/stm32f3xx_hal_i2s.c ****   hi2s->Instance->CR2 &= (uint32_t)(~SPI_CR2_RXDMAEN);
 1199              		.loc 1 899 23 discriminator 2 view .LVU394
 1200 0016 5368     		ldr	r3, [r2, #4]
 1201 0018 23F00203 		bic	r3, r3, #2
 1202 001c 5360     		str	r3, [r2, #4]
 900:Drivers/STM32F3xx_HAL_Driver/Src/stm32f3xx_hal_i2s.c ****   
 1203              		.loc 1 900 3 is_stmt 1 discriminator 2 view .LVU395
 900:Drivers/STM32F3xx_HAL_Driver/Src/stm32f3xx_hal_i2s.c ****   
 1204              		.loc 1 900 7 is_stmt 0 discriminator 2 view .LVU396
 1205 001e 0268     		ldr	r2, [r0]
 900:Drivers/STM32F3xx_HAL_Driver/Src/stm32f3xx_hal_i2s.c ****   
 1206              		.loc 1 900 23 discriminator 2 view .LVU397
 1207 0020 5368     		ldr	r3, [r2, #4]
 1208 0022 23F00103 		bic	r3, r3, #1
 1209 0026 5360     		str	r3, [r2, #4]
 903:Drivers/STM32F3xx_HAL_Driver/Src/stm32f3xx_hal_i2s.c ****   {
 1210              		.loc 1 903 3 is_stmt 1 discriminator 2 view .LVU398
 903:Drivers/STM32F3xx_HAL_Driver/Src/stm32f3xx_hal_i2s.c ****   {
 1211              		.loc 1 903 10 is_stmt 0 discriminator 2 view .LVU399
 1212 0028 436B     		ldr	r3, [r0, #52]
 903:Drivers/STM32F3xx_HAL_Driver/Src/stm32f3xx_hal_i2s.c ****   {
 1213              		.loc 1 903 5 discriminator 2 view .LVU400
 1214 002a 3BB1     		cbz	r3, .L91
 906:Drivers/STM32F3xx_HAL_Driver/Src/stm32f3xx_hal_i2s.c ****     HAL_DMA_Abort(hi2s->hdmatx);
 1215              		.loc 1 906 5 is_stmt 1 view .LVU401
 1216 002c 1A68     		ldr	r2, [r3]
 1217 002e 1368     		ldr	r3, [r2]
 1218 0030 23F00103 		bic	r3, r3, #1
 1219 0034 1360     		str	r3, [r2]
 907:Drivers/STM32F3xx_HAL_Driver/Src/stm32f3xx_hal_i2s.c ****   }
 1220              		.loc 1 907 5 view .LVU402
 1221 0036 406B     		ldr	r0, [r0, #52]
 1222              	.LVL68:
 907:Drivers/STM32F3xx_HAL_Driver/Src/stm32f3xx_hal_i2s.c ****   }
 1223              		.loc 1 907 5 is_stmt 0 view .LVU403
 1224 0038 FFF7FEFF 		bl	HAL_DMA_Abort
 1225              	.LVL69:
 1226              	.L91:
 910:Drivers/STM32F3xx_HAL_Driver/Src/stm32f3xx_hal_i2s.c ****   {
 1227              		.loc 1 910 3 is_stmt 1 view .LVU404
 910:Drivers/STM32F3xx_HAL_Driver/Src/stm32f3xx_hal_i2s.c ****   {
 1228              		.loc 1 910 10 is_stmt 0 view .LVU405
 1229 003c A36B     		ldr	r3, [r4, #56]
 910:Drivers/STM32F3xx_HAL_Driver/Src/stm32f3xx_hal_i2s.c ****   {
 1230              		.loc 1 910 5 view .LVU406
 1231 003e 3BB1     		cbz	r3, .L92
 913:Drivers/STM32F3xx_HAL_Driver/Src/stm32f3xx_hal_i2s.c ****     HAL_DMA_Abort(hi2s->hdmarx);
ARM GAS  C:\Users\SHINRA~1\AppData\Local\Temp\ccBXzGic.s 			page 52


 1232              		.loc 1 913 5 is_stmt 1 view .LVU407
 1233 0040 1A68     		ldr	r2, [r3]
 1234 0042 1368     		ldr	r3, [r2]
 1235 0044 23F00103 		bic	r3, r3, #1
 1236 0048 1360     		str	r3, [r2]
 914:Drivers/STM32F3xx_HAL_Driver/Src/stm32f3xx_hal_i2s.c ****   }
 1237              		.loc 1 914 5 view .LVU408
 1238 004a A06B     		ldr	r0, [r4, #56]
 1239 004c FFF7FEFF 		bl	HAL_DMA_Abort
 1240              	.LVL70:
 1241              	.L92:
 918:Drivers/STM32F3xx_HAL_Driver/Src/stm32f3xx_hal_i2s.c ****   
 1242              		.loc 1 918 3 view .LVU409
 1243 0050 2268     		ldr	r2, [r4]
 1244 0052 D369     		ldr	r3, [r2, #28]
 1245 0054 23F48063 		bic	r3, r3, #1024
 1246 0058 1B04     		lsls	r3, r3, #16
 1247 005a 1B0C     		lsrs	r3, r3, #16
 1248 005c D361     		str	r3, [r2, #28]
 920:Drivers/STM32F3xx_HAL_Driver/Src/stm32f3xx_hal_i2s.c ****   
 1249              		.loc 1 920 3 view .LVU410
 920:Drivers/STM32F3xx_HAL_Driver/Src/stm32f3xx_hal_i2s.c ****   
 1250              		.loc 1 920 15 is_stmt 0 view .LVU411
 1251 005e 0123     		movs	r3, #1
 1252 0060 84F83D30 		strb	r3, [r4, #61]
 923:Drivers/STM32F3xx_HAL_Driver/Src/stm32f3xx_hal_i2s.c ****   
 1253              		.loc 1 923 3 is_stmt 1 view .LVU412
 923:Drivers/STM32F3xx_HAL_Driver/Src/stm32f3xx_hal_i2s.c ****   
 1254              		.loc 1 923 3 view .LVU413
 1255 0064 0020     		movs	r0, #0
 1256 0066 84F83C00 		strb	r0, [r4, #60]
 923:Drivers/STM32F3xx_HAL_Driver/Src/stm32f3xx_hal_i2s.c ****   
 1257              		.loc 1 923 3 view .LVU414
 925:Drivers/STM32F3xx_HAL_Driver/Src/stm32f3xx_hal_i2s.c **** }
 1258              		.loc 1 925 3 view .LVU415
 926:Drivers/STM32F3xx_HAL_Driver/Src/stm32f3xx_hal_i2s.c **** 
 1259              		.loc 1 926 1 is_stmt 0 view .LVU416
 1260 006a 10BD     		pop	{r4, pc}
 1261              	.LVL71:
 1262              	.L93:
 1263              	.LCFI13:
 1264              		.cfi_def_cfa_offset 0
 1265              		.cfi_restore 4
 1266              		.cfi_restore 14
 896:Drivers/STM32F3xx_HAL_Driver/Src/stm32f3xx_hal_i2s.c ****   
 1267              		.loc 1 896 3 view .LVU417
 1268 006c 0220     		movs	r0, #2
 1269              	.LVL72:
 926:Drivers/STM32F3xx_HAL_Driver/Src/stm32f3xx_hal_i2s.c **** 
 1270              		.loc 1 926 1 view .LVU418
 1271 006e 7047     		bx	lr
 1272              		.cfi_endproc
 1273              	.LFE138:
 1275              		.section	.text.HAL_I2S_TxHalfCpltCallback,"ax",%progbits
 1276              		.align	1
 1277              		.weak	HAL_I2S_TxHalfCpltCallback
 1278              		.syntax unified
ARM GAS  C:\Users\SHINRA~1\AppData\Local\Temp\ccBXzGic.s 			page 53


 1279              		.thumb
 1280              		.thumb_func
 1281              		.fpu fpv4-sp-d16
 1283              	HAL_I2S_TxHalfCpltCallback:
 1284              	.LVL73:
 1285              	.LFB140:
1008:Drivers/STM32F3xx_HAL_Driver/Src/stm32f3xx_hal_i2s.c ****   /* Prevent unused argument(s) compilation warning */
 1286              		.loc 1 1008 1 is_stmt 1 view -0
 1287              		.cfi_startproc
 1288              		@ args = 0, pretend = 0, frame = 0
 1289              		@ frame_needed = 0, uses_anonymous_args = 0
 1290              		@ link register save eliminated.
1010:Drivers/STM32F3xx_HAL_Driver/Src/stm32f3xx_hal_i2s.c **** 
 1291              		.loc 1 1010 3 view .LVU420
1015:Drivers/STM32F3xx_HAL_Driver/Src/stm32f3xx_hal_i2s.c **** 
 1292              		.loc 1 1015 1 is_stmt 0 view .LVU421
 1293 0000 7047     		bx	lr
 1294              		.cfi_endproc
 1295              	.LFE140:
 1297              		.section	.text.I2S_DMATxHalfCplt,"ax",%progbits
 1298              		.align	1
 1299              		.syntax unified
 1300              		.thumb
 1301              		.thumb_func
 1302              		.fpu fpv4-sp-d16
 1304              	I2S_DMATxHalfCplt:
 1305              	.LVL74:
 1306              	.LFB148:
1160:Drivers/STM32F3xx_HAL_Driver/Src/stm32f3xx_hal_i2s.c ****   I2S_HandleTypeDef* hi2s = (I2S_HandleTypeDef*)((DMA_HandleTypeDef*)hdma)->Parent;
 1307              		.loc 1 1160 1 is_stmt 1 view -0
 1308              		.cfi_startproc
 1309              		@ args = 0, pretend = 0, frame = 0
 1310              		@ frame_needed = 0, uses_anonymous_args = 0
1160:Drivers/STM32F3xx_HAL_Driver/Src/stm32f3xx_hal_i2s.c ****   I2S_HandleTypeDef* hi2s = (I2S_HandleTypeDef*)((DMA_HandleTypeDef*)hdma)->Parent;
 1311              		.loc 1 1160 1 is_stmt 0 view .LVU423
 1312 0000 08B5     		push	{r3, lr}
 1313              	.LCFI14:
 1314              		.cfi_def_cfa_offset 8
 1315              		.cfi_offset 3, -8
 1316              		.cfi_offset 14, -4
1161:Drivers/STM32F3xx_HAL_Driver/Src/stm32f3xx_hal_i2s.c **** 
 1317              		.loc 1 1161 3 is_stmt 1 view .LVU424
 1318              	.LVL75:
1163:Drivers/STM32F3xx_HAL_Driver/Src/stm32f3xx_hal_i2s.c **** }
 1319              		.loc 1 1163 3 view .LVU425
 1320 0002 406A     		ldr	r0, [r0, #36]
 1321              	.LVL76:
1163:Drivers/STM32F3xx_HAL_Driver/Src/stm32f3xx_hal_i2s.c **** }
 1322              		.loc 1 1163 3 is_stmt 0 view .LVU426
 1323 0004 FFF7FEFF 		bl	HAL_I2S_TxHalfCpltCallback
 1324              	.LVL77:
1164:Drivers/STM32F3xx_HAL_Driver/Src/stm32f3xx_hal_i2s.c **** 
 1325              		.loc 1 1164 1 view .LVU427
 1326 0008 08BD     		pop	{r3, pc}
 1327              		.cfi_endproc
 1328              	.LFE148:
 1330              		.section	.text.HAL_I2S_TxCpltCallback,"ax",%progbits
ARM GAS  C:\Users\SHINRA~1\AppData\Local\Temp\ccBXzGic.s 			page 54


 1331              		.align	1
 1332              		.weak	HAL_I2S_TxCpltCallback
 1333              		.syntax unified
 1334              		.thumb
 1335              		.thumb_func
 1336              		.fpu fpv4-sp-d16
 1338              	HAL_I2S_TxCpltCallback:
 1339              	.LVL78:
 1340              	.LFB141:
1024:Drivers/STM32F3xx_HAL_Driver/Src/stm32f3xx_hal_i2s.c ****   /* Prevent unused argument(s) compilation warning */
 1341              		.loc 1 1024 1 is_stmt 1 view -0
 1342              		.cfi_startproc
 1343              		@ args = 0, pretend = 0, frame = 0
 1344              		@ frame_needed = 0, uses_anonymous_args = 0
 1345              		@ link register save eliminated.
1026:Drivers/STM32F3xx_HAL_Driver/Src/stm32f3xx_hal_i2s.c **** 
 1346              		.loc 1 1026 3 view .LVU429
1031:Drivers/STM32F3xx_HAL_Driver/Src/stm32f3xx_hal_i2s.c **** 
 1347              		.loc 1 1031 1 is_stmt 0 view .LVU430
 1348 0000 7047     		bx	lr
 1349              		.cfi_endproc
 1350              	.LFE141:
 1352              		.section	.text.I2S_DMATxCplt,"ax",%progbits
 1353              		.align	1
 1354              		.syntax unified
 1355              		.thumb
 1356              		.thumb_func
 1357              		.fpu fpv4-sp-d16
 1359              	I2S_DMATxCplt:
 1360              	.LVL79:
 1361              	.LFB147:
1139:Drivers/STM32F3xx_HAL_Driver/Src/stm32f3xx_hal_i2s.c ****   I2S_HandleTypeDef* hi2s = ( I2S_HandleTypeDef* )((DMA_HandleTypeDef* )hdma)->Parent;
 1362              		.loc 1 1139 1 is_stmt 1 view -0
 1363              		.cfi_startproc
 1364              		@ args = 0, pretend = 0, frame = 0
 1365              		@ frame_needed = 0, uses_anonymous_args = 0
1139:Drivers/STM32F3xx_HAL_Driver/Src/stm32f3xx_hal_i2s.c ****   I2S_HandleTypeDef* hi2s = ( I2S_HandleTypeDef* )((DMA_HandleTypeDef* )hdma)->Parent;
 1366              		.loc 1 1139 1 is_stmt 0 view .LVU432
 1367 0000 08B5     		push	{r3, lr}
 1368              	.LCFI15:
 1369              		.cfi_def_cfa_offset 8
 1370              		.cfi_offset 3, -8
 1371              		.cfi_offset 14, -4
 1372 0002 0346     		mov	r3, r0
1140:Drivers/STM32F3xx_HAL_Driver/Src/stm32f3xx_hal_i2s.c ****   
 1373              		.loc 1 1140 3 is_stmt 1 view .LVU433
1140:Drivers/STM32F3xx_HAL_Driver/Src/stm32f3xx_hal_i2s.c ****   
 1374              		.loc 1 1140 22 is_stmt 0 view .LVU434
 1375 0004 406A     		ldr	r0, [r0, #36]
 1376              	.LVL80:
1142:Drivers/STM32F3xx_HAL_Driver/Src/stm32f3xx_hal_i2s.c ****   {
 1377              		.loc 1 1142 3 is_stmt 1 view .LVU435
1142:Drivers/STM32F3xx_HAL_Driver/Src/stm32f3xx_hal_i2s.c ****   {
 1378              		.loc 1 1142 11 is_stmt 0 view .LVU436
 1379 0006 1B68     		ldr	r3, [r3]
 1380              	.LVL81:
1142:Drivers/STM32F3xx_HAL_Driver/Src/stm32f3xx_hal_i2s.c ****   {
ARM GAS  C:\Users\SHINRA~1\AppData\Local\Temp\ccBXzGic.s 			page 55


 1381              		.loc 1 1142 21 view .LVU437
 1382 0008 1B68     		ldr	r3, [r3]
1142:Drivers/STM32F3xx_HAL_Driver/Src/stm32f3xx_hal_i2s.c ****   {
 1383              		.loc 1 1142 5 view .LVU438
 1384 000a 13F0200F 		tst	r3, #32
 1385 000e 09D1     		bne	.L103
1145:Drivers/STM32F3xx_HAL_Driver/Src/stm32f3xx_hal_i2s.c ****   
 1386              		.loc 1 1145 5 is_stmt 1 view .LVU439
1145:Drivers/STM32F3xx_HAL_Driver/Src/stm32f3xx_hal_i2s.c ****   
 1387              		.loc 1 1145 9 is_stmt 0 view .LVU440
 1388 0010 0268     		ldr	r2, [r0]
1145:Drivers/STM32F3xx_HAL_Driver/Src/stm32f3xx_hal_i2s.c ****   
 1389              		.loc 1 1145 25 view .LVU441
 1390 0012 5368     		ldr	r3, [r2, #4]
 1391 0014 23F00203 		bic	r3, r3, #2
 1392 0018 5360     		str	r3, [r2, #4]
1147:Drivers/STM32F3xx_HAL_Driver/Src/stm32f3xx_hal_i2s.c ****     hi2s->State = HAL_I2S_STATE_READY;
 1393              		.loc 1 1147 5 is_stmt 1 view .LVU442
1147:Drivers/STM32F3xx_HAL_Driver/Src/stm32f3xx_hal_i2s.c ****     hi2s->State = HAL_I2S_STATE_READY;
 1394              		.loc 1 1147 23 is_stmt 0 view .LVU443
 1395 001a 0023     		movs	r3, #0
 1396 001c 4385     		strh	r3, [r0, #42]	@ movhi
1148:Drivers/STM32F3xx_HAL_Driver/Src/stm32f3xx_hal_i2s.c ****   }
 1397              		.loc 1 1148 5 is_stmt 1 view .LVU444
1148:Drivers/STM32F3xx_HAL_Driver/Src/stm32f3xx_hal_i2s.c ****   }
 1398              		.loc 1 1148 17 is_stmt 0 view .LVU445
 1399 001e 0123     		movs	r3, #1
 1400 0020 80F83D30 		strb	r3, [r0, #61]
 1401              	.L103:
1150:Drivers/STM32F3xx_HAL_Driver/Src/stm32f3xx_hal_i2s.c **** }
 1402              		.loc 1 1150 3 is_stmt 1 view .LVU446
 1403 0024 FFF7FEFF 		bl	HAL_I2S_TxCpltCallback
 1404              	.LVL82:
1151:Drivers/STM32F3xx_HAL_Driver/Src/stm32f3xx_hal_i2s.c **** 
 1405              		.loc 1 1151 1 is_stmt 0 view .LVU447
 1406 0028 08BD     		pop	{r3, pc}
 1407              		.cfi_endproc
 1408              	.LFE147:
 1410              		.section	.text.I2S_Transmit_IT,"ax",%progbits
 1411              		.align	1
 1412              		.syntax unified
 1413              		.thumb
 1414              		.thumb_func
 1415              		.fpu fpv4-sp-d16
 1417              	I2S_Transmit_IT:
 1418              	.LVL83:
 1419              	.LFB152:
1228:Drivers/STM32F3xx_HAL_Driver/Src/stm32f3xx_hal_i2s.c ****   /* Transmit data */
 1420              		.loc 1 1228 1 is_stmt 1 view -0
 1421              		.cfi_startproc
 1422              		@ args = 0, pretend = 0, frame = 0
 1423              		@ frame_needed = 0, uses_anonymous_args = 0
1228:Drivers/STM32F3xx_HAL_Driver/Src/stm32f3xx_hal_i2s.c ****   /* Transmit data */
 1424              		.loc 1 1228 1 is_stmt 0 view .LVU449
 1425 0000 08B5     		push	{r3, lr}
 1426              	.LCFI16:
 1427              		.cfi_def_cfa_offset 8
ARM GAS  C:\Users\SHINRA~1\AppData\Local\Temp\ccBXzGic.s 			page 56


 1428              		.cfi_offset 3, -8
 1429              		.cfi_offset 14, -4
1230:Drivers/STM32F3xx_HAL_Driver/Src/stm32f3xx_hal_i2s.c ****   hi2s->TxXferCount--;
 1430              		.loc 1 1230 3 is_stmt 1 view .LVU450
1230:Drivers/STM32F3xx_HAL_Driver/Src/stm32f3xx_hal_i2s.c ****   hi2s->TxXferCount--;
 1431              		.loc 1 1230 30 is_stmt 0 view .LVU451
 1432 0002 436A     		ldr	r3, [r0, #36]
1230:Drivers/STM32F3xx_HAL_Driver/Src/stm32f3xx_hal_i2s.c ****   hi2s->TxXferCount--;
 1433              		.loc 1 1230 42 view .LVU452
 1434 0004 9A1C     		adds	r2, r3, #2
 1435 0006 4262     		str	r2, [r0, #36]
1230:Drivers/STM32F3xx_HAL_Driver/Src/stm32f3xx_hal_i2s.c ****   hi2s->TxXferCount--;
 1436              		.loc 1 1230 7 view .LVU453
 1437 0008 0268     		ldr	r2, [r0]
1230:Drivers/STM32F3xx_HAL_Driver/Src/stm32f3xx_hal_i2s.c ****   hi2s->TxXferCount--;
 1438              		.loc 1 1230 25 view .LVU454
 1439 000a 1B88     		ldrh	r3, [r3]
1230:Drivers/STM32F3xx_HAL_Driver/Src/stm32f3xx_hal_i2s.c ****   hi2s->TxXferCount--;
 1440              		.loc 1 1230 22 view .LVU455
 1441 000c D360     		str	r3, [r2, #12]
1231:Drivers/STM32F3xx_HAL_Driver/Src/stm32f3xx_hal_i2s.c **** 
 1442              		.loc 1 1231 3 is_stmt 1 view .LVU456
1231:Drivers/STM32F3xx_HAL_Driver/Src/stm32f3xx_hal_i2s.c **** 
 1443              		.loc 1 1231 7 is_stmt 0 view .LVU457
 1444 000e 438D     		ldrh	r3, [r0, #42]
 1445 0010 9BB2     		uxth	r3, r3
1231:Drivers/STM32F3xx_HAL_Driver/Src/stm32f3xx_hal_i2s.c **** 
 1446              		.loc 1 1231 20 view .LVU458
 1447 0012 013B     		subs	r3, r3, #1
 1448 0014 9BB2     		uxth	r3, r3
 1449 0016 4385     		strh	r3, [r0, #42]	@ movhi
1233:Drivers/STM32F3xx_HAL_Driver/Src/stm32f3xx_hal_i2s.c ****   {
 1450              		.loc 1 1233 3 is_stmt 1 view .LVU459
1233:Drivers/STM32F3xx_HAL_Driver/Src/stm32f3xx_hal_i2s.c ****   {
 1451              		.loc 1 1233 10 is_stmt 0 view .LVU460
 1452 0018 438D     		ldrh	r3, [r0, #42]
 1453 001a 9BB2     		uxth	r3, r3
1233:Drivers/STM32F3xx_HAL_Driver/Src/stm32f3xx_hal_i2s.c ****   {
 1454              		.loc 1 1233 5 view .LVU461
 1455 001c 03B1     		cbz	r3, .L108
 1456              	.LVL84:
 1457              	.L105:
1241:Drivers/STM32F3xx_HAL_Driver/Src/stm32f3xx_hal_i2s.c **** 
 1458              		.loc 1 1241 1 view .LVU462
 1459 001e 08BD     		pop	{r3, pc}
 1460              	.LVL85:
 1461              	.L108:
1236:Drivers/STM32F3xx_HAL_Driver/Src/stm32f3xx_hal_i2s.c **** 
 1462              		.loc 1 1236 5 is_stmt 1 view .LVU463
 1463 0020 0268     		ldr	r2, [r0]
 1464 0022 5368     		ldr	r3, [r2, #4]
 1465 0024 23F0A003 		bic	r3, r3, #160
 1466 0028 1B04     		lsls	r3, r3, #16
 1467 002a 1B0C     		lsrs	r3, r3, #16
 1468 002c 5360     		str	r3, [r2, #4]
1238:Drivers/STM32F3xx_HAL_Driver/Src/stm32f3xx_hal_i2s.c ****     HAL_I2S_TxCpltCallback(hi2s);
 1469              		.loc 1 1238 5 view .LVU464
ARM GAS  C:\Users\SHINRA~1\AppData\Local\Temp\ccBXzGic.s 			page 57


1238:Drivers/STM32F3xx_HAL_Driver/Src/stm32f3xx_hal_i2s.c ****     HAL_I2S_TxCpltCallback(hi2s);
 1470              		.loc 1 1238 17 is_stmt 0 view .LVU465
 1471 002e 0123     		movs	r3, #1
 1472 0030 80F83D30 		strb	r3, [r0, #61]
1239:Drivers/STM32F3xx_HAL_Driver/Src/stm32f3xx_hal_i2s.c ****   }
 1473              		.loc 1 1239 5 is_stmt 1 view .LVU466
 1474 0034 FFF7FEFF 		bl	HAL_I2S_TxCpltCallback
 1475              	.LVL86:
1241:Drivers/STM32F3xx_HAL_Driver/Src/stm32f3xx_hal_i2s.c **** 
 1476              		.loc 1 1241 1 is_stmt 0 view .LVU467
 1477 0038 F1E7     		b	.L105
 1478              		.cfi_endproc
 1479              	.LFE152:
 1481              		.section	.text.HAL_I2S_RxHalfCpltCallback,"ax",%progbits
 1482              		.align	1
 1483              		.weak	HAL_I2S_RxHalfCpltCallback
 1484              		.syntax unified
 1485              		.thumb
 1486              		.thumb_func
 1487              		.fpu fpv4-sp-d16
 1489              	HAL_I2S_RxHalfCpltCallback:
 1490              	.LVL87:
 1491              	.LFB142:
1040:Drivers/STM32F3xx_HAL_Driver/Src/stm32f3xx_hal_i2s.c ****   /* Prevent unused argument(s) compilation warning */
 1492              		.loc 1 1040 1 is_stmt 1 view -0
 1493              		.cfi_startproc
 1494              		@ args = 0, pretend = 0, frame = 0
 1495              		@ frame_needed = 0, uses_anonymous_args = 0
 1496              		@ link register save eliminated.
1042:Drivers/STM32F3xx_HAL_Driver/Src/stm32f3xx_hal_i2s.c **** 
 1497              		.loc 1 1042 3 view .LVU469
1047:Drivers/STM32F3xx_HAL_Driver/Src/stm32f3xx_hal_i2s.c **** 
 1498              		.loc 1 1047 1 is_stmt 0 view .LVU470
 1499 0000 7047     		bx	lr
 1500              		.cfi_endproc
 1501              	.LFE142:
 1503              		.section	.text.I2S_DMARxHalfCplt,"ax",%progbits
 1504              		.align	1
 1505              		.syntax unified
 1506              		.thumb
 1507              		.thumb_func
 1508              		.fpu fpv4-sp-d16
 1510              	I2S_DMARxHalfCplt:
 1511              	.LVL88:
 1512              	.LFB150:
1193:Drivers/STM32F3xx_HAL_Driver/Src/stm32f3xx_hal_i2s.c ****   I2S_HandleTypeDef* hi2s = (I2S_HandleTypeDef*)((DMA_HandleTypeDef*)hdma)->Parent;
 1513              		.loc 1 1193 1 is_stmt 1 view -0
 1514              		.cfi_startproc
 1515              		@ args = 0, pretend = 0, frame = 0
 1516              		@ frame_needed = 0, uses_anonymous_args = 0
1193:Drivers/STM32F3xx_HAL_Driver/Src/stm32f3xx_hal_i2s.c ****   I2S_HandleTypeDef* hi2s = (I2S_HandleTypeDef*)((DMA_HandleTypeDef*)hdma)->Parent;
 1517              		.loc 1 1193 1 is_stmt 0 view .LVU472
 1518 0000 08B5     		push	{r3, lr}
 1519              	.LCFI17:
 1520              		.cfi_def_cfa_offset 8
 1521              		.cfi_offset 3, -8
 1522              		.cfi_offset 14, -4
ARM GAS  C:\Users\SHINRA~1\AppData\Local\Temp\ccBXzGic.s 			page 58


1194:Drivers/STM32F3xx_HAL_Driver/Src/stm32f3xx_hal_i2s.c **** 
 1523              		.loc 1 1194 3 is_stmt 1 view .LVU473
 1524              	.LVL89:
1196:Drivers/STM32F3xx_HAL_Driver/Src/stm32f3xx_hal_i2s.c **** }
 1525              		.loc 1 1196 3 view .LVU474
 1526 0002 406A     		ldr	r0, [r0, #36]
 1527              	.LVL90:
1196:Drivers/STM32F3xx_HAL_Driver/Src/stm32f3xx_hal_i2s.c **** }
 1528              		.loc 1 1196 3 is_stmt 0 view .LVU475
 1529 0004 FFF7FEFF 		bl	HAL_I2S_RxHalfCpltCallback
 1530              	.LVL91:
1197:Drivers/STM32F3xx_HAL_Driver/Src/stm32f3xx_hal_i2s.c **** 
 1531              		.loc 1 1197 1 view .LVU476
 1532 0008 08BD     		pop	{r3, pc}
 1533              		.cfi_endproc
 1534              	.LFE150:
 1536              		.section	.text.HAL_I2S_RxCpltCallback,"ax",%progbits
 1537              		.align	1
 1538              		.weak	HAL_I2S_RxCpltCallback
 1539              		.syntax unified
 1540              		.thumb
 1541              		.thumb_func
 1542              		.fpu fpv4-sp-d16
 1544              	HAL_I2S_RxCpltCallback:
 1545              	.LVL92:
 1546              	.LFB143:
1056:Drivers/STM32F3xx_HAL_Driver/Src/stm32f3xx_hal_i2s.c ****   /* Prevent unused argument(s) compilation warning */
 1547              		.loc 1 1056 1 is_stmt 1 view -0
 1548              		.cfi_startproc
 1549              		@ args = 0, pretend = 0, frame = 0
 1550              		@ frame_needed = 0, uses_anonymous_args = 0
 1551              		@ link register save eliminated.
1058:Drivers/STM32F3xx_HAL_Driver/Src/stm32f3xx_hal_i2s.c **** 
 1552              		.loc 1 1058 3 view .LVU478
1063:Drivers/STM32F3xx_HAL_Driver/Src/stm32f3xx_hal_i2s.c **** 
 1553              		.loc 1 1063 1 is_stmt 0 view .LVU479
 1554 0000 7047     		bx	lr
 1555              		.cfi_endproc
 1556              	.LFE143:
 1558              		.section	.text.I2S_DMARxCplt,"ax",%progbits
 1559              		.align	1
 1560              		.syntax unified
 1561              		.thumb
 1562              		.thumb_func
 1563              		.fpu fpv4-sp-d16
 1565              	I2S_DMARxCplt:
 1566              	.LVL93:
 1567              	.LFB149:
1173:Drivers/STM32F3xx_HAL_Driver/Src/stm32f3xx_hal_i2s.c ****   I2S_HandleTypeDef* hi2s = ( I2S_HandleTypeDef* )((DMA_HandleTypeDef* )hdma)->Parent;
 1568              		.loc 1 1173 1 is_stmt 1 view -0
 1569              		.cfi_startproc
 1570              		@ args = 0, pretend = 0, frame = 0
 1571              		@ frame_needed = 0, uses_anonymous_args = 0
1173:Drivers/STM32F3xx_HAL_Driver/Src/stm32f3xx_hal_i2s.c ****   I2S_HandleTypeDef* hi2s = ( I2S_HandleTypeDef* )((DMA_HandleTypeDef* )hdma)->Parent;
 1572              		.loc 1 1173 1 is_stmt 0 view .LVU481
 1573 0000 08B5     		push	{r3, lr}
 1574              	.LCFI18:
ARM GAS  C:\Users\SHINRA~1\AppData\Local\Temp\ccBXzGic.s 			page 59


 1575              		.cfi_def_cfa_offset 8
 1576              		.cfi_offset 3, -8
 1577              		.cfi_offset 14, -4
 1578 0002 0346     		mov	r3, r0
1174:Drivers/STM32F3xx_HAL_Driver/Src/stm32f3xx_hal_i2s.c **** 
 1579              		.loc 1 1174 3 is_stmt 1 view .LVU482
1174:Drivers/STM32F3xx_HAL_Driver/Src/stm32f3xx_hal_i2s.c **** 
 1580              		.loc 1 1174 22 is_stmt 0 view .LVU483
 1581 0004 406A     		ldr	r0, [r0, #36]
 1582              	.LVL94:
1176:Drivers/STM32F3xx_HAL_Driver/Src/stm32f3xx_hal_i2s.c ****   {
 1583              		.loc 1 1176 3 is_stmt 1 view .LVU484
1176:Drivers/STM32F3xx_HAL_Driver/Src/stm32f3xx_hal_i2s.c ****   {
 1584              		.loc 1 1176 11 is_stmt 0 view .LVU485
 1585 0006 1B68     		ldr	r3, [r3]
 1586              	.LVL95:
1176:Drivers/STM32F3xx_HAL_Driver/Src/stm32f3xx_hal_i2s.c ****   {
 1587              		.loc 1 1176 21 view .LVU486
 1588 0008 1B68     		ldr	r3, [r3]
1176:Drivers/STM32F3xx_HAL_Driver/Src/stm32f3xx_hal_i2s.c ****   {
 1589              		.loc 1 1176 5 view .LVU487
 1590 000a 13F0200F 		tst	r3, #32
 1591 000e 09D1     		bne	.L114
1179:Drivers/STM32F3xx_HAL_Driver/Src/stm32f3xx_hal_i2s.c ****     hi2s->RxXferCount = 0U;
 1592              		.loc 1 1179 5 is_stmt 1 view .LVU488
1179:Drivers/STM32F3xx_HAL_Driver/Src/stm32f3xx_hal_i2s.c ****     hi2s->RxXferCount = 0U;
 1593              		.loc 1 1179 9 is_stmt 0 view .LVU489
 1594 0010 0268     		ldr	r2, [r0]
1179:Drivers/STM32F3xx_HAL_Driver/Src/stm32f3xx_hal_i2s.c ****     hi2s->RxXferCount = 0U;
 1595              		.loc 1 1179 25 view .LVU490
 1596 0012 5368     		ldr	r3, [r2, #4]
 1597 0014 23F00103 		bic	r3, r3, #1
 1598 0018 5360     		str	r3, [r2, #4]
1180:Drivers/STM32F3xx_HAL_Driver/Src/stm32f3xx_hal_i2s.c ****     hi2s->State = HAL_I2S_STATE_READY;
 1599              		.loc 1 1180 5 is_stmt 1 view .LVU491
1180:Drivers/STM32F3xx_HAL_Driver/Src/stm32f3xx_hal_i2s.c ****     hi2s->State = HAL_I2S_STATE_READY;
 1600              		.loc 1 1180 23 is_stmt 0 view .LVU492
 1601 001a 0023     		movs	r3, #0
 1602 001c 4386     		strh	r3, [r0, #50]	@ movhi
1181:Drivers/STM32F3xx_HAL_Driver/Src/stm32f3xx_hal_i2s.c ****   }
 1603              		.loc 1 1181 5 is_stmt 1 view .LVU493
1181:Drivers/STM32F3xx_HAL_Driver/Src/stm32f3xx_hal_i2s.c ****   }
 1604              		.loc 1 1181 17 is_stmt 0 view .LVU494
 1605 001e 0123     		movs	r3, #1
 1606 0020 80F83D30 		strb	r3, [r0, #61]
 1607              	.L114:
1183:Drivers/STM32F3xx_HAL_Driver/Src/stm32f3xx_hal_i2s.c **** }
 1608              		.loc 1 1183 3 is_stmt 1 view .LVU495
 1609 0024 FFF7FEFF 		bl	HAL_I2S_RxCpltCallback
 1610              	.LVL96:
1184:Drivers/STM32F3xx_HAL_Driver/Src/stm32f3xx_hal_i2s.c **** 
 1611              		.loc 1 1184 1 is_stmt 0 view .LVU496
 1612 0028 08BD     		pop	{r3, pc}
 1613              		.cfi_endproc
 1614              	.LFE149:
 1616              		.section	.text.I2S_Receive_IT,"ax",%progbits
 1617              		.align	1
ARM GAS  C:\Users\SHINRA~1\AppData\Local\Temp\ccBXzGic.s 			page 60


 1618              		.syntax unified
 1619              		.thumb
 1620              		.thumb_func
 1621              		.fpu fpv4-sp-d16
 1623              	I2S_Receive_IT:
 1624              	.LVL97:
 1625              	.LFB153:
1249:Drivers/STM32F3xx_HAL_Driver/Src/stm32f3xx_hal_i2s.c ****   /* Receive data */    
 1626              		.loc 1 1249 1 is_stmt 1 view -0
 1627              		.cfi_startproc
 1628              		@ args = 0, pretend = 0, frame = 0
 1629              		@ frame_needed = 0, uses_anonymous_args = 0
1249:Drivers/STM32F3xx_HAL_Driver/Src/stm32f3xx_hal_i2s.c ****   /* Receive data */    
 1630              		.loc 1 1249 1 is_stmt 0 view .LVU498
 1631 0000 08B5     		push	{r3, lr}
 1632              	.LCFI19:
 1633              		.cfi_def_cfa_offset 8
 1634              		.cfi_offset 3, -8
 1635              		.cfi_offset 14, -4
1251:Drivers/STM32F3xx_HAL_Driver/Src/stm32f3xx_hal_i2s.c ****   hi2s->RxXferCount--;
 1636              		.loc 1 1251 3 is_stmt 1 view .LVU499
1251:Drivers/STM32F3xx_HAL_Driver/Src/stm32f3xx_hal_i2s.c ****   hi2s->RxXferCount--;
 1637              		.loc 1 1251 31 is_stmt 0 view .LVU500
 1638 0002 0368     		ldr	r3, [r0]
1251:Drivers/STM32F3xx_HAL_Driver/Src/stm32f3xx_hal_i2s.c ****   hi2s->RxXferCount--;
 1639              		.loc 1 1251 41 view .LVU501
 1640 0004 DA68     		ldr	r2, [r3, #12]
1251:Drivers/STM32F3xx_HAL_Driver/Src/stm32f3xx_hal_i2s.c ****   hi2s->RxXferCount--;
 1641              		.loc 1 1251 9 view .LVU502
 1642 0006 C36A     		ldr	r3, [r0, #44]
1251:Drivers/STM32F3xx_HAL_Driver/Src/stm32f3xx_hal_i2s.c ****   hi2s->RxXferCount--;
 1643              		.loc 1 1251 21 view .LVU503
 1644 0008 991C     		adds	r1, r3, #2
 1645 000a C162     		str	r1, [r0, #44]
1251:Drivers/STM32F3xx_HAL_Driver/Src/stm32f3xx_hal_i2s.c ****   hi2s->RxXferCount--;
 1646              		.loc 1 1251 25 view .LVU504
 1647 000c 1A80     		strh	r2, [r3]	@ movhi
1252:Drivers/STM32F3xx_HAL_Driver/Src/stm32f3xx_hal_i2s.c **** 
 1648              		.loc 1 1252 3 is_stmt 1 view .LVU505
1252:Drivers/STM32F3xx_HAL_Driver/Src/stm32f3xx_hal_i2s.c **** 
 1649              		.loc 1 1252 7 is_stmt 0 view .LVU506
 1650 000e 438E     		ldrh	r3, [r0, #50]
 1651 0010 9BB2     		uxth	r3, r3
1252:Drivers/STM32F3xx_HAL_Driver/Src/stm32f3xx_hal_i2s.c **** 
 1652              		.loc 1 1252 20 view .LVU507
 1653 0012 013B     		subs	r3, r3, #1
 1654 0014 9BB2     		uxth	r3, r3
 1655 0016 4386     		strh	r3, [r0, #50]	@ movhi
1254:Drivers/STM32F3xx_HAL_Driver/Src/stm32f3xx_hal_i2s.c ****   {
 1656              		.loc 1 1254 3 is_stmt 1 view .LVU508
1254:Drivers/STM32F3xx_HAL_Driver/Src/stm32f3xx_hal_i2s.c ****   {
 1657              		.loc 1 1254 10 is_stmt 0 view .LVU509
 1658 0018 438E     		ldrh	r3, [r0, #50]
 1659 001a 9BB2     		uxth	r3, r3
1254:Drivers/STM32F3xx_HAL_Driver/Src/stm32f3xx_hal_i2s.c ****   {
 1660              		.loc 1 1254 5 view .LVU510
 1661 001c 03B1     		cbz	r3, .L119
ARM GAS  C:\Users\SHINRA~1\AppData\Local\Temp\ccBXzGic.s 			page 61


 1662              	.LVL98:
 1663              	.L116:
1262:Drivers/STM32F3xx_HAL_Driver/Src/stm32f3xx_hal_i2s.c **** 
 1664              		.loc 1 1262 1 view .LVU511
 1665 001e 08BD     		pop	{r3, pc}
 1666              	.LVL99:
 1667              	.L119:
1257:Drivers/STM32F3xx_HAL_Driver/Src/stm32f3xx_hal_i2s.c **** 
 1668              		.loc 1 1257 5 is_stmt 1 view .LVU512
 1669 0020 0268     		ldr	r2, [r0]
 1670 0022 5368     		ldr	r3, [r2, #4]
 1671 0024 23F06003 		bic	r3, r3, #96
 1672 0028 1B04     		lsls	r3, r3, #16
 1673 002a 1B0C     		lsrs	r3, r3, #16
 1674 002c 5360     		str	r3, [r2, #4]
1259:Drivers/STM32F3xx_HAL_Driver/Src/stm32f3xx_hal_i2s.c ****     HAL_I2S_RxCpltCallback(hi2s); 
 1675              		.loc 1 1259 5 view .LVU513
1259:Drivers/STM32F3xx_HAL_Driver/Src/stm32f3xx_hal_i2s.c ****     HAL_I2S_RxCpltCallback(hi2s); 
 1676              		.loc 1 1259 17 is_stmt 0 view .LVU514
 1677 002e 0123     		movs	r3, #1
 1678 0030 80F83D30 		strb	r3, [r0, #61]
1260:Drivers/STM32F3xx_HAL_Driver/Src/stm32f3xx_hal_i2s.c ****   }
 1679              		.loc 1 1260 5 is_stmt 1 view .LVU515
 1680 0034 FFF7FEFF 		bl	HAL_I2S_RxCpltCallback
 1681              	.LVL100:
1262:Drivers/STM32F3xx_HAL_Driver/Src/stm32f3xx_hal_i2s.c **** 
 1682              		.loc 1 1262 1 is_stmt 0 view .LVU516
 1683 0038 F1E7     		b	.L116
 1684              		.cfi_endproc
 1685              	.LFE153:
 1687              		.section	.text.HAL_I2S_ErrorCallback,"ax",%progbits
 1688              		.align	1
 1689              		.weak	HAL_I2S_ErrorCallback
 1690              		.syntax unified
 1691              		.thumb
 1692              		.thumb_func
 1693              		.fpu fpv4-sp-d16
 1695              	HAL_I2S_ErrorCallback:
 1696              	.LVL101:
 1697              	.LFB144:
1072:Drivers/STM32F3xx_HAL_Driver/Src/stm32f3xx_hal_i2s.c ****   /* Prevent unused argument(s) compilation warning */
 1698              		.loc 1 1072 1 is_stmt 1 view -0
 1699              		.cfi_startproc
 1700              		@ args = 0, pretend = 0, frame = 0
 1701              		@ frame_needed = 0, uses_anonymous_args = 0
 1702              		@ link register save eliminated.
1074:Drivers/STM32F3xx_HAL_Driver/Src/stm32f3xx_hal_i2s.c **** 
 1703              		.loc 1 1074 3 view .LVU518
1079:Drivers/STM32F3xx_HAL_Driver/Src/stm32f3xx_hal_i2s.c **** 
 1704              		.loc 1 1079 1 is_stmt 0 view .LVU519
 1705 0000 7047     		bx	lr
 1706              		.cfi_endproc
 1707              	.LFE144:
 1709              		.section	.text.HAL_I2S_Transmit,"ax",%progbits
 1710              		.align	1
 1711              		.global	HAL_I2S_Transmit
 1712              		.syntax unified
ARM GAS  C:\Users\SHINRA~1\AppData\Local\Temp\ccBXzGic.s 			page 62


 1713              		.thumb
 1714              		.thumb_func
 1715              		.fpu fpv4-sp-d16
 1717              	HAL_I2S_Transmit:
 1718              	.LVL102:
 1719              	.LFB130:
 356:Drivers/STM32F3xx_HAL_Driver/Src/stm32f3xx_hal_i2s.c ****   if((pData == NULL ) || (Size == 0U)) 
 1720              		.loc 1 356 1 is_stmt 1 view -0
 1721              		.cfi_startproc
 1722              		@ args = 0, pretend = 0, frame = 0
 1723              		@ frame_needed = 0, uses_anonymous_args = 0
 356:Drivers/STM32F3xx_HAL_Driver/Src/stm32f3xx_hal_i2s.c ****   if((pData == NULL ) || (Size == 0U)) 
 1724              		.loc 1 356 1 is_stmt 0 view .LVU521
 1725 0000 F8B5     		push	{r3, r4, r5, r6, r7, lr}
 1726              	.LCFI20:
 1727              		.cfi_def_cfa_offset 24
 1728              		.cfi_offset 3, -24
 1729              		.cfi_offset 4, -20
 1730              		.cfi_offset 5, -16
 1731              		.cfi_offset 6, -12
 1732              		.cfi_offset 7, -8
 1733              		.cfi_offset 14, -4
 357:Drivers/STM32F3xx_HAL_Driver/Src/stm32f3xx_hal_i2s.c ****   {
 1734              		.loc 1 357 3 is_stmt 1 view .LVU522
 357:Drivers/STM32F3xx_HAL_Driver/Src/stm32f3xx_hal_i2s.c ****   {
 1735              		.loc 1 357 5 is_stmt 0 view .LVU523
 1736 0002 0029     		cmp	r1, #0
 1737 0004 66D0     		beq	.L130
 1738 0006 0446     		mov	r4, r0
 1739 0008 1E46     		mov	r6, r3
 1740 000a 0D46     		mov	r5, r1
 357:Drivers/STM32F3xx_HAL_Driver/Src/stm32f3xx_hal_i2s.c ****   {
 1741              		.loc 1 357 23 discriminator 1 view .LVU524
 1742 000c 002A     		cmp	r2, #0
 1743 000e 63D0     		beq	.L131
 362:Drivers/STM32F3xx_HAL_Driver/Src/stm32f3xx_hal_i2s.c ****   { 
 1744              		.loc 1 362 3 is_stmt 1 view .LVU525
 362:Drivers/STM32F3xx_HAL_Driver/Src/stm32f3xx_hal_i2s.c ****   { 
 1745              		.loc 1 362 10 is_stmt 0 view .LVU526
 1746 0010 90F83D70 		ldrb	r7, [r0, #61]	@ zero_extendqisi2
 1747 0014 FFB2     		uxtb	r7, r7
 362:Drivers/STM32F3xx_HAL_Driver/Src/stm32f3xx_hal_i2s.c ****   { 
 1748              		.loc 1 362 5 view .LVU527
 1749 0016 012F     		cmp	r7, #1
 1750 0018 61D1     		bne	.L132
 364:Drivers/STM32F3xx_HAL_Driver/Src/stm32f3xx_hal_i2s.c ****        ((hi2s->Instance->I2SCFGR & (SPI_I2SCFGR_DATLEN | SPI_I2SCFGR_CHLEN)) == I2S_DATAFORMAT_32B)
 1751              		.loc 1 364 5 is_stmt 1 view .LVU528
 364:Drivers/STM32F3xx_HAL_Driver/Src/stm32f3xx_hal_i2s.c ****        ((hi2s->Instance->I2SCFGR & (SPI_I2SCFGR_DATLEN | SPI_I2SCFGR_CHLEN)) == I2S_DATAFORMAT_32B)
 1752              		.loc 1 364 14 is_stmt 0 view .LVU529
 1753 001a 0368     		ldr	r3, [r0]
 1754              	.LVL103:
 364:Drivers/STM32F3xx_HAL_Driver/Src/stm32f3xx_hal_i2s.c ****        ((hi2s->Instance->I2SCFGR & (SPI_I2SCFGR_DATLEN | SPI_I2SCFGR_CHLEN)) == I2S_DATAFORMAT_32B)
 1755              		.loc 1 364 24 view .LVU530
 1756 001c D969     		ldr	r1, [r3, #28]
 1757              	.LVL104:
 364:Drivers/STM32F3xx_HAL_Driver/Src/stm32f3xx_hal_i2s.c ****        ((hi2s->Instance->I2SCFGR & (SPI_I2SCFGR_DATLEN | SPI_I2SCFGR_CHLEN)) == I2S_DATAFORMAT_32B)
 1758              		.loc 1 364 34 view .LVU531
ARM GAS  C:\Users\SHINRA~1\AppData\Local\Temp\ccBXzGic.s 			page 63


 1759 001e 01F00701 		and	r1, r1, #7
 364:Drivers/STM32F3xx_HAL_Driver/Src/stm32f3xx_hal_i2s.c ****        ((hi2s->Instance->I2SCFGR & (SPI_I2SCFGR_DATLEN | SPI_I2SCFGR_CHLEN)) == I2S_DATAFORMAT_32B)
 1760              		.loc 1 364 7 view .LVU532
 1761 0022 0329     		cmp	r1, #3
 1762 0024 07D0     		beq	.L123
 365:Drivers/STM32F3xx_HAL_Driver/Src/stm32f3xx_hal_i2s.c ****     {
 1763              		.loc 1 365 24 discriminator 1 view .LVU533
 1764 0026 D969     		ldr	r1, [r3, #28]
 365:Drivers/STM32F3xx_HAL_Driver/Src/stm32f3xx_hal_i2s.c ****     {
 1765              		.loc 1 365 34 discriminator 1 view .LVU534
 1766 0028 01F00701 		and	r1, r1, #7
 364:Drivers/STM32F3xx_HAL_Driver/Src/stm32f3xx_hal_i2s.c ****        ((hi2s->Instance->I2SCFGR & (SPI_I2SCFGR_DATLEN | SPI_I2SCFGR_CHLEN)) == I2S_DATAFORMAT_32B)
 1767              		.loc 1 364 100 discriminator 1 view .LVU535
 1768 002c 0529     		cmp	r1, #5
 1769 002e 02D0     		beq	.L123
 372:Drivers/STM32F3xx_HAL_Driver/Src/stm32f3xx_hal_i2s.c ****       hi2s->TxXferCount = Size;
 1770              		.loc 1 372 7 is_stmt 1 view .LVU536
 372:Drivers/STM32F3xx_HAL_Driver/Src/stm32f3xx_hal_i2s.c ****       hi2s->TxXferCount = Size;
 1771              		.loc 1 372 24 is_stmt 0 view .LVU537
 1772 0030 0285     		strh	r2, [r0, #40]	@ movhi
 373:Drivers/STM32F3xx_HAL_Driver/Src/stm32f3xx_hal_i2s.c ****     }
 1773              		.loc 1 373 7 is_stmt 1 view .LVU538
 373:Drivers/STM32F3xx_HAL_Driver/Src/stm32f3xx_hal_i2s.c ****     }
 1774              		.loc 1 373 25 is_stmt 0 view .LVU539
 1775 0032 4285     		strh	r2, [r0, #42]	@ movhi
 1776 0034 03E0     		b	.L125
 1777              	.L123:
 367:Drivers/STM32F3xx_HAL_Driver/Src/stm32f3xx_hal_i2s.c ****       hi2s->TxXferCount = (Size << 1U);
 1778              		.loc 1 367 7 is_stmt 1 view .LVU540
 367:Drivers/STM32F3xx_HAL_Driver/Src/stm32f3xx_hal_i2s.c ****       hi2s->TxXferCount = (Size << 1U);
 1779              		.loc 1 367 32 is_stmt 0 view .LVU541
 1780 0036 5200     		lsls	r2, r2, #1
 1781              	.LVL105:
 367:Drivers/STM32F3xx_HAL_Driver/Src/stm32f3xx_hal_i2s.c ****       hi2s->TxXferCount = (Size << 1U);
 1782              		.loc 1 367 32 view .LVU542
 1783 0038 92B2     		uxth	r2, r2
 367:Drivers/STM32F3xx_HAL_Driver/Src/stm32f3xx_hal_i2s.c ****       hi2s->TxXferCount = (Size << 1U);
 1784              		.loc 1 367 24 view .LVU543
 1785 003a 2285     		strh	r2, [r4, #40]	@ movhi
 368:Drivers/STM32F3xx_HAL_Driver/Src/stm32f3xx_hal_i2s.c ****     }
 1786              		.loc 1 368 7 is_stmt 1 view .LVU544
 368:Drivers/STM32F3xx_HAL_Driver/Src/stm32f3xx_hal_i2s.c ****     }
 1787              		.loc 1 368 25 is_stmt 0 view .LVU545
 1788 003c 6285     		strh	r2, [r4, #42]	@ movhi
 1789              	.L125:
 377:Drivers/STM32F3xx_HAL_Driver/Src/stm32f3xx_hal_i2s.c ****     
 1790              		.loc 1 377 5 is_stmt 1 view .LVU546
 377:Drivers/STM32F3xx_HAL_Driver/Src/stm32f3xx_hal_i2s.c ****     
 1791              		.loc 1 377 5 view .LVU547
 1792 003e 94F83C20 		ldrb	r2, [r4, #60]	@ zero_extendqisi2
 1793 0042 D2B2     		uxtb	r2, r2
 1794 0044 012A     		cmp	r2, #1
 1795 0046 4CD0     		beq	.L133
 377:Drivers/STM32F3xx_HAL_Driver/Src/stm32f3xx_hal_i2s.c ****     
 1796              		.loc 1 377 5 discriminator 2 view .LVU548
 1797 0048 0122     		movs	r2, #1
 1798 004a 84F83C20 		strb	r2, [r4, #60]
ARM GAS  C:\Users\SHINRA~1\AppData\Local\Temp\ccBXzGic.s 			page 64


 377:Drivers/STM32F3xx_HAL_Driver/Src/stm32f3xx_hal_i2s.c ****     
 1799              		.loc 1 377 5 discriminator 2 view .LVU549
 379:Drivers/STM32F3xx_HAL_Driver/Src/stm32f3xx_hal_i2s.c ****     hi2s->State = HAL_I2S_STATE_BUSY_TX;
 1800              		.loc 1 379 5 discriminator 2 view .LVU550
 379:Drivers/STM32F3xx_HAL_Driver/Src/stm32f3xx_hal_i2s.c ****     hi2s->State = HAL_I2S_STATE_BUSY_TX;
 1801              		.loc 1 379 21 is_stmt 0 discriminator 2 view .LVU551
 1802 004e 0022     		movs	r2, #0
 1803 0050 2264     		str	r2, [r4, #64]
 380:Drivers/STM32F3xx_HAL_Driver/Src/stm32f3xx_hal_i2s.c ****    
 1804              		.loc 1 380 5 is_stmt 1 discriminator 2 view .LVU552
 380:Drivers/STM32F3xx_HAL_Driver/Src/stm32f3xx_hal_i2s.c ****    
 1805              		.loc 1 380 17 is_stmt 0 discriminator 2 view .LVU553
 1806 0052 0322     		movs	r2, #3
 1807 0054 84F83D20 		strb	r2, [r4, #61]
 383:Drivers/STM32F3xx_HAL_Driver/Src/stm32f3xx_hal_i2s.c ****     {
 1808              		.loc 1 383 5 is_stmt 1 discriminator 2 view .LVU554
 383:Drivers/STM32F3xx_HAL_Driver/Src/stm32f3xx_hal_i2s.c ****     {
 1809              		.loc 1 383 23 is_stmt 0 discriminator 2 view .LVU555
 1810 0058 DA69     		ldr	r2, [r3, #28]
 383:Drivers/STM32F3xx_HAL_Driver/Src/stm32f3xx_hal_i2s.c ****     {
 1811              		.loc 1 383 7 discriminator 2 view .LVU556
 1812 005a 12F4806F 		tst	r2, #1024
 1813 005e 03D1     		bne	.L128
 386:Drivers/STM32F3xx_HAL_Driver/Src/stm32f3xx_hal_i2s.c ****     }
 1814              		.loc 1 386 7 is_stmt 1 view .LVU557
 1815 0060 DA69     		ldr	r2, [r3, #28]
 1816 0062 42F48062 		orr	r2, r2, #1024
 1817 0066 DA61     		str	r2, [r3, #28]
 1818              	.LVL106:
 1819              	.L128:
 389:Drivers/STM32F3xx_HAL_Driver/Src/stm32f3xx_hal_i2s.c ****     {
 1820              		.loc 1 389 10 view .LVU558
 389:Drivers/STM32F3xx_HAL_Driver/Src/stm32f3xx_hal_i2s.c ****     {
 1821              		.loc 1 389 15 is_stmt 0 view .LVU559
 1822 0068 638D     		ldrh	r3, [r4, #42]
 1823 006a 9BB2     		uxth	r3, r3
 389:Drivers/STM32F3xx_HAL_Driver/Src/stm32f3xx_hal_i2s.c ****     {
 1824              		.loc 1 389 10 view .LVU560
 1825 006c 5BB3     		cbz	r3, .L136
 391:Drivers/STM32F3xx_HAL_Driver/Src/stm32f3xx_hal_i2s.c ****       hi2s->TxXferCount--;   
 1826              		.loc 1 391 7 is_stmt 1 view .LVU561
 1827              	.LVL107:
 391:Drivers/STM32F3xx_HAL_Driver/Src/stm32f3xx_hal_i2s.c ****       hi2s->TxXferCount--;   
 1828              		.loc 1 391 11 is_stmt 0 view .LVU562
 1829 006e 2368     		ldr	r3, [r4]
 391:Drivers/STM32F3xx_HAL_Driver/Src/stm32f3xx_hal_i2s.c ****       hi2s->TxXferCount--;   
 1830              		.loc 1 391 29 view .LVU563
 1831 0070 35F8022B 		ldrh	r2, [r5], #2
 1832              	.LVL108:
 391:Drivers/STM32F3xx_HAL_Driver/Src/stm32f3xx_hal_i2s.c ****       hi2s->TxXferCount--;   
 1833              		.loc 1 391 26 view .LVU564
 1834 0074 DA60     		str	r2, [r3, #12]
 392:Drivers/STM32F3xx_HAL_Driver/Src/stm32f3xx_hal_i2s.c ****       /* Wait until TXE flag is set */
 1835              		.loc 1 392 7 is_stmt 1 view .LVU565
 392:Drivers/STM32F3xx_HAL_Driver/Src/stm32f3xx_hal_i2s.c ****       /* Wait until TXE flag is set */
 1836              		.loc 1 392 11 is_stmt 0 view .LVU566
 1837 0076 628D     		ldrh	r2, [r4, #42]
ARM GAS  C:\Users\SHINRA~1\AppData\Local\Temp\ccBXzGic.s 			page 65


 1838 0078 92B2     		uxth	r2, r2
 392:Drivers/STM32F3xx_HAL_Driver/Src/stm32f3xx_hal_i2s.c ****       /* Wait until TXE flag is set */
 1839              		.loc 1 392 24 view .LVU567
 1840 007a 013A     		subs	r2, r2, #1
 1841 007c 92B2     		uxth	r2, r2
 1842 007e 6285     		strh	r2, [r4, #42]	@ movhi
 394:Drivers/STM32F3xx_HAL_Driver/Src/stm32f3xx_hal_i2s.c ****       {
 1843              		.loc 1 394 7 is_stmt 1 view .LVU568
 394:Drivers/STM32F3xx_HAL_Driver/Src/stm32f3xx_hal_i2s.c ****       {
 1844              		.loc 1 394 11 is_stmt 0 view .LVU569
 1845 0080 3346     		mov	r3, r6
 1846 0082 0022     		movs	r2, #0
 1847 0084 0221     		movs	r1, #2
 1848 0086 2046     		mov	r0, r4
 1849 0088 FFF7FEFF 		bl	I2S_WaitFlagStateUntilTimeout
 1850              	.LVL109:
 394:Drivers/STM32F3xx_HAL_Driver/Src/stm32f3xx_hal_i2s.c ****       {
 1851              		.loc 1 394 10 view .LVU570
 1852 008c 90B9     		cbnz	r0, .L137
 403:Drivers/STM32F3xx_HAL_Driver/Src/stm32f3xx_hal_i2s.c ****       {
 1853              		.loc 1 403 7 is_stmt 1 view .LVU571
 403:Drivers/STM32F3xx_HAL_Driver/Src/stm32f3xx_hal_i2s.c ****       {
 1854              		.loc 1 403 10 is_stmt 0 view .LVU572
 1855 008e 2368     		ldr	r3, [r4]
 1856 0090 9B68     		ldr	r3, [r3, #8]
 403:Drivers/STM32F3xx_HAL_Driver/Src/stm32f3xx_hal_i2s.c ****       {
 1857              		.loc 1 403 9 view .LVU573
 1858 0092 13F0080F 		tst	r3, #8
 1859 0096 E7D0     		beq	.L128
 406:Drivers/STM32F3xx_HAL_Driver/Src/stm32f3xx_hal_i2s.c **** 
 1860              		.loc 1 406 9 is_stmt 1 view .LVU574
 406:Drivers/STM32F3xx_HAL_Driver/Src/stm32f3xx_hal_i2s.c **** 
 1861              		.loc 1 406 21 is_stmt 0 view .LVU575
 1862 0098 0123     		movs	r3, #1
 1863 009a 84F83D30 		strb	r3, [r4, #61]
 409:Drivers/STM32F3xx_HAL_Driver/Src/stm32f3xx_hal_i2s.c **** 
 1864              		.loc 1 409 9 is_stmt 1 view .LVU576
 409:Drivers/STM32F3xx_HAL_Driver/Src/stm32f3xx_hal_i2s.c **** 
 1865              		.loc 1 409 9 view .LVU577
 1866 009e 0023     		movs	r3, #0
 1867 00a0 84F83C30 		strb	r3, [r4, #60]
 409:Drivers/STM32F3xx_HAL_Driver/Src/stm32f3xx_hal_i2s.c **** 
 1868              		.loc 1 409 9 view .LVU578
 412:Drivers/STM32F3xx_HAL_Driver/Src/stm32f3xx_hal_i2s.c ****         HAL_I2S_ErrorCallback(hi2s);
 1869              		.loc 1 412 9 view .LVU579
 412:Drivers/STM32F3xx_HAL_Driver/Src/stm32f3xx_hal_i2s.c ****         HAL_I2S_ErrorCallback(hi2s);
 1870              		.loc 1 412 25 is_stmt 0 view .LVU580
 1871 00a4 236C     		ldr	r3, [r4, #64]
 1872 00a6 43F00403 		orr	r3, r3, #4
 1873 00aa 2364     		str	r3, [r4, #64]
 413:Drivers/STM32F3xx_HAL_Driver/Src/stm32f3xx_hal_i2s.c **** 
 1874              		.loc 1 413 9 is_stmt 1 view .LVU581
 1875 00ac 2046     		mov	r0, r4
 1876 00ae FFF7FEFF 		bl	HAL_I2S_ErrorCallback
 1877              	.LVL110:
 415:Drivers/STM32F3xx_HAL_Driver/Src/stm32f3xx_hal_i2s.c ****       }
 1878              		.loc 1 415 9 view .LVU582
ARM GAS  C:\Users\SHINRA~1\AppData\Local\Temp\ccBXzGic.s 			page 66


 415:Drivers/STM32F3xx_HAL_Driver/Src/stm32f3xx_hal_i2s.c ****       }
 1879              		.loc 1 415 16 is_stmt 0 view .LVU583
 1880 00b2 12E0     		b	.L122
 1881              	.L137:
 397:Drivers/STM32F3xx_HAL_Driver/Src/stm32f3xx_hal_i2s.c ****         HAL_I2S_ErrorCallback(hi2s);
 1882              		.loc 1 397 9 is_stmt 1 view .LVU584
 397:Drivers/STM32F3xx_HAL_Driver/Src/stm32f3xx_hal_i2s.c ****         HAL_I2S_ErrorCallback(hi2s);
 1883              		.loc 1 397 25 is_stmt 0 view .LVU585
 1884 00b4 236C     		ldr	r3, [r4, #64]
 1885 00b6 43F00103 		orr	r3, r3, #1
 1886 00ba 2364     		str	r3, [r4, #64]
 398:Drivers/STM32F3xx_HAL_Driver/Src/stm32f3xx_hal_i2s.c ****         return HAL_TIMEOUT;
 1887              		.loc 1 398 9 is_stmt 1 view .LVU586
 1888 00bc 2046     		mov	r0, r4
 1889 00be FFF7FEFF 		bl	HAL_I2S_ErrorCallback
 1890              	.LVL111:
 399:Drivers/STM32F3xx_HAL_Driver/Src/stm32f3xx_hal_i2s.c ****       }
 1891              		.loc 1 399 9 view .LVU587
 399:Drivers/STM32F3xx_HAL_Driver/Src/stm32f3xx_hal_i2s.c ****       }
 1892              		.loc 1 399 16 is_stmt 0 view .LVU588
 1893 00c2 0327     		movs	r7, #3
 1894 00c4 09E0     		b	.L122
 1895              	.L136:
 418:Drivers/STM32F3xx_HAL_Driver/Src/stm32f3xx_hal_i2s.c ****     
 1896              		.loc 1 418 5 is_stmt 1 view .LVU589
 418:Drivers/STM32F3xx_HAL_Driver/Src/stm32f3xx_hal_i2s.c ****     
 1897              		.loc 1 418 17 is_stmt 0 view .LVU590
 1898 00c6 0123     		movs	r3, #1
 1899 00c8 84F83D30 		strb	r3, [r4, #61]
 421:Drivers/STM32F3xx_HAL_Driver/Src/stm32f3xx_hal_i2s.c ****     
 1900              		.loc 1 421 5 is_stmt 1 view .LVU591
 421:Drivers/STM32F3xx_HAL_Driver/Src/stm32f3xx_hal_i2s.c ****     
 1901              		.loc 1 421 5 view .LVU592
 1902 00cc 0027     		movs	r7, #0
 1903 00ce 84F83C70 		strb	r7, [r4, #60]
 421:Drivers/STM32F3xx_HAL_Driver/Src/stm32f3xx_hal_i2s.c ****     
 1904              		.loc 1 421 5 view .LVU593
 423:Drivers/STM32F3xx_HAL_Driver/Src/stm32f3xx_hal_i2s.c ****   }
 1905              		.loc 1 423 5 view .LVU594
 423:Drivers/STM32F3xx_HAL_Driver/Src/stm32f3xx_hal_i2s.c ****   }
 1906              		.loc 1 423 12 is_stmt 0 view .LVU595
 1907 00d2 02E0     		b	.L122
 1908              	.LVL112:
 1909              	.L130:
 359:Drivers/STM32F3xx_HAL_Driver/Src/stm32f3xx_hal_i2s.c ****   }
 1910              		.loc 1 359 13 view .LVU596
 1911 00d4 0127     		movs	r7, #1
 1912 00d6 00E0     		b	.L122
 1913              	.L131:
 359:Drivers/STM32F3xx_HAL_Driver/Src/stm32f3xx_hal_i2s.c ****   }
 1914              		.loc 1 359 13 view .LVU597
 1915 00d8 0127     		movs	r7, #1
 1916              	.LVL113:
 1917              	.L122:
 429:Drivers/STM32F3xx_HAL_Driver/Src/stm32f3xx_hal_i2s.c **** 
 1918              		.loc 1 429 1 view .LVU598
 1919 00da 3846     		mov	r0, r7
ARM GAS  C:\Users\SHINRA~1\AppData\Local\Temp\ccBXzGic.s 			page 67


 1920 00dc F8BD     		pop	{r3, r4, r5, r6, r7, pc}
 1921              	.LVL114:
 1922              	.L132:
 427:Drivers/STM32F3xx_HAL_Driver/Src/stm32f3xx_hal_i2s.c ****   }
 1923              		.loc 1 427 12 view .LVU599
 1924 00de 0227     		movs	r7, #2
 1925 00e0 FBE7     		b	.L122
 1926              	.LVL115:
 1927              	.L133:
 377:Drivers/STM32F3xx_HAL_Driver/Src/stm32f3xx_hal_i2s.c ****     
 1928              		.loc 1 377 5 view .LVU600
 1929 00e2 0227     		movs	r7, #2
 1930 00e4 F9E7     		b	.L122
 1931              		.cfi_endproc
 1932              	.LFE130:
 1934              		.section	.text.HAL_I2S_Receive,"ax",%progbits
 1935              		.align	1
 1936              		.global	HAL_I2S_Receive
 1937              		.syntax unified
 1938              		.thumb
 1939              		.thumb_func
 1940              		.fpu fpv4-sp-d16
 1942              	HAL_I2S_Receive:
 1943              	.LVL116:
 1944              	.LFB131:
 449:Drivers/STM32F3xx_HAL_Driver/Src/stm32f3xx_hal_i2s.c ****   if((pData == NULL ) || (Size == 0U)) 
 1945              		.loc 1 449 1 is_stmt 1 view -0
 1946              		.cfi_startproc
 1947              		@ args = 0, pretend = 0, frame = 8
 1948              		@ frame_needed = 0, uses_anonymous_args = 0
 449:Drivers/STM32F3xx_HAL_Driver/Src/stm32f3xx_hal_i2s.c ****   if((pData == NULL ) || (Size == 0U)) 
 1949              		.loc 1 449 1 is_stmt 0 view .LVU602
 1950 0000 F0B5     		push	{r4, r5, r6, r7, lr}
 1951              	.LCFI21:
 1952              		.cfi_def_cfa_offset 20
 1953              		.cfi_offset 4, -20
 1954              		.cfi_offset 5, -16
 1955              		.cfi_offset 6, -12
 1956              		.cfi_offset 7, -8
 1957              		.cfi_offset 14, -4
 1958 0002 83B0     		sub	sp, sp, #12
 1959              	.LCFI22:
 1960              		.cfi_def_cfa_offset 32
 450:Drivers/STM32F3xx_HAL_Driver/Src/stm32f3xx_hal_i2s.c ****   {
 1961              		.loc 1 450 3 is_stmt 1 view .LVU603
 450:Drivers/STM32F3xx_HAL_Driver/Src/stm32f3xx_hal_i2s.c ****   {
 1962              		.loc 1 450 5 is_stmt 0 view .LVU604
 1963 0004 0029     		cmp	r1, #0
 1964 0006 76D0     		beq	.L149
 1965 0008 0446     		mov	r4, r0
 1966 000a 1D46     		mov	r5, r3
 1967 000c 0F46     		mov	r7, r1
 450:Drivers/STM32F3xx_HAL_Driver/Src/stm32f3xx_hal_i2s.c ****   {
 1968              		.loc 1 450 23 discriminator 1 view .LVU605
 1969 000e 002A     		cmp	r2, #0
 1970 0010 73D0     		beq	.L150
 455:Drivers/STM32F3xx_HAL_Driver/Src/stm32f3xx_hal_i2s.c ****   { 
ARM GAS  C:\Users\SHINRA~1\AppData\Local\Temp\ccBXzGic.s 			page 68


 1971              		.loc 1 455 3 is_stmt 1 view .LVU606
 455:Drivers/STM32F3xx_HAL_Driver/Src/stm32f3xx_hal_i2s.c ****   { 
 1972              		.loc 1 455 10 is_stmt 0 view .LVU607
 1973 0012 90F83D60 		ldrb	r6, [r0, #61]	@ zero_extendqisi2
 1974 0016 F6B2     		uxtb	r6, r6
 455:Drivers/STM32F3xx_HAL_Driver/Src/stm32f3xx_hal_i2s.c ****   { 
 1975              		.loc 1 455 5 view .LVU608
 1976 0018 012E     		cmp	r6, #1
 1977 001a 72D1     		bne	.L151
 457:Drivers/STM32F3xx_HAL_Driver/Src/stm32f3xx_hal_i2s.c ****        ((hi2s->Instance->I2SCFGR & (SPI_I2SCFGR_DATLEN | SPI_I2SCFGR_CHLEN)) == I2S_DATAFORMAT_32B)
 1978              		.loc 1 457 5 is_stmt 1 view .LVU609
 457:Drivers/STM32F3xx_HAL_Driver/Src/stm32f3xx_hal_i2s.c ****        ((hi2s->Instance->I2SCFGR & (SPI_I2SCFGR_DATLEN | SPI_I2SCFGR_CHLEN)) == I2S_DATAFORMAT_32B)
 1979              		.loc 1 457 14 is_stmt 0 view .LVU610
 1980 001c 0368     		ldr	r3, [r0]
 1981              	.LVL117:
 457:Drivers/STM32F3xx_HAL_Driver/Src/stm32f3xx_hal_i2s.c ****        ((hi2s->Instance->I2SCFGR & (SPI_I2SCFGR_DATLEN | SPI_I2SCFGR_CHLEN)) == I2S_DATAFORMAT_32B)
 1982              		.loc 1 457 24 view .LVU611
 1983 001e D969     		ldr	r1, [r3, #28]
 1984              	.LVL118:
 457:Drivers/STM32F3xx_HAL_Driver/Src/stm32f3xx_hal_i2s.c ****        ((hi2s->Instance->I2SCFGR & (SPI_I2SCFGR_DATLEN | SPI_I2SCFGR_CHLEN)) == I2S_DATAFORMAT_32B)
 1985              		.loc 1 457 34 view .LVU612
 1986 0020 01F00701 		and	r1, r1, #7
 457:Drivers/STM32F3xx_HAL_Driver/Src/stm32f3xx_hal_i2s.c ****        ((hi2s->Instance->I2SCFGR & (SPI_I2SCFGR_DATLEN | SPI_I2SCFGR_CHLEN)) == I2S_DATAFORMAT_32B)
 1987              		.loc 1 457 7 view .LVU613
 1988 0024 0329     		cmp	r1, #3
 1989 0026 07D0     		beq	.L140
 458:Drivers/STM32F3xx_HAL_Driver/Src/stm32f3xx_hal_i2s.c ****     {
 1990              		.loc 1 458 24 discriminator 1 view .LVU614
 1991 0028 D969     		ldr	r1, [r3, #28]
 458:Drivers/STM32F3xx_HAL_Driver/Src/stm32f3xx_hal_i2s.c ****     {
 1992              		.loc 1 458 34 discriminator 1 view .LVU615
 1993 002a 01F00701 		and	r1, r1, #7
 457:Drivers/STM32F3xx_HAL_Driver/Src/stm32f3xx_hal_i2s.c ****        ((hi2s->Instance->I2SCFGR & (SPI_I2SCFGR_DATLEN | SPI_I2SCFGR_CHLEN)) == I2S_DATAFORMAT_32B)
 1994              		.loc 1 457 100 discriminator 1 view .LVU616
 1995 002e 0529     		cmp	r1, #5
 1996 0030 02D0     		beq	.L140
 465:Drivers/STM32F3xx_HAL_Driver/Src/stm32f3xx_hal_i2s.c ****       hi2s->RxXferCount = Size;
 1997              		.loc 1 465 7 is_stmt 1 view .LVU617
 465:Drivers/STM32F3xx_HAL_Driver/Src/stm32f3xx_hal_i2s.c ****       hi2s->RxXferCount = Size;
 1998              		.loc 1 465 24 is_stmt 0 view .LVU618
 1999 0032 0286     		strh	r2, [r0, #48]	@ movhi
 466:Drivers/STM32F3xx_HAL_Driver/Src/stm32f3xx_hal_i2s.c ****     }
 2000              		.loc 1 466 7 is_stmt 1 view .LVU619
 466:Drivers/STM32F3xx_HAL_Driver/Src/stm32f3xx_hal_i2s.c ****     }
 2001              		.loc 1 466 25 is_stmt 0 view .LVU620
 2002 0034 4286     		strh	r2, [r0, #50]	@ movhi
 2003 0036 03E0     		b	.L142
 2004              	.L140:
 460:Drivers/STM32F3xx_HAL_Driver/Src/stm32f3xx_hal_i2s.c ****       hi2s->RxXferCount = (Size << 1U);
 2005              		.loc 1 460 7 is_stmt 1 view .LVU621
 460:Drivers/STM32F3xx_HAL_Driver/Src/stm32f3xx_hal_i2s.c ****       hi2s->RxXferCount = (Size << 1U);
 2006              		.loc 1 460 32 is_stmt 0 view .LVU622
 2007 0038 5200     		lsls	r2, r2, #1
 2008              	.LVL119:
 460:Drivers/STM32F3xx_HAL_Driver/Src/stm32f3xx_hal_i2s.c ****       hi2s->RxXferCount = (Size << 1U);
 2009              		.loc 1 460 32 view .LVU623
 2010 003a 92B2     		uxth	r2, r2
ARM GAS  C:\Users\SHINRA~1\AppData\Local\Temp\ccBXzGic.s 			page 69


 460:Drivers/STM32F3xx_HAL_Driver/Src/stm32f3xx_hal_i2s.c ****       hi2s->RxXferCount = (Size << 1U);
 2011              		.loc 1 460 24 view .LVU624
 2012 003c 2286     		strh	r2, [r4, #48]	@ movhi
 461:Drivers/STM32F3xx_HAL_Driver/Src/stm32f3xx_hal_i2s.c ****     }
 2013              		.loc 1 461 7 is_stmt 1 view .LVU625
 461:Drivers/STM32F3xx_HAL_Driver/Src/stm32f3xx_hal_i2s.c ****     }
 2014              		.loc 1 461 25 is_stmt 0 view .LVU626
 2015 003e 6286     		strh	r2, [r4, #50]	@ movhi
 2016              	.L142:
 469:Drivers/STM32F3xx_HAL_Driver/Src/stm32f3xx_hal_i2s.c **** 
 2017              		.loc 1 469 5 is_stmt 1 view .LVU627
 469:Drivers/STM32F3xx_HAL_Driver/Src/stm32f3xx_hal_i2s.c **** 
 2018              		.loc 1 469 5 view .LVU628
 2019 0040 94F83C20 		ldrb	r2, [r4, #60]	@ zero_extendqisi2
 2020 0044 D2B2     		uxtb	r2, r2
 2021 0046 012A     		cmp	r2, #1
 2022 0048 5DD0     		beq	.L152
 469:Drivers/STM32F3xx_HAL_Driver/Src/stm32f3xx_hal_i2s.c **** 
 2023              		.loc 1 469 5 discriminator 2 view .LVU629
 2024 004a 0122     		movs	r2, #1
 2025 004c 84F83C20 		strb	r2, [r4, #60]
 469:Drivers/STM32F3xx_HAL_Driver/Src/stm32f3xx_hal_i2s.c **** 
 2026              		.loc 1 469 5 discriminator 2 view .LVU630
 471:Drivers/STM32F3xx_HAL_Driver/Src/stm32f3xx_hal_i2s.c ****     hi2s->State = HAL_I2S_STATE_BUSY_RX;
 2027              		.loc 1 471 5 discriminator 2 view .LVU631
 471:Drivers/STM32F3xx_HAL_Driver/Src/stm32f3xx_hal_i2s.c ****     hi2s->State = HAL_I2S_STATE_BUSY_RX;
 2028              		.loc 1 471 21 is_stmt 0 discriminator 2 view .LVU632
 2029 0050 0022     		movs	r2, #0
 2030 0052 2264     		str	r2, [r4, #64]
 472:Drivers/STM32F3xx_HAL_Driver/Src/stm32f3xx_hal_i2s.c **** 
 2031              		.loc 1 472 5 is_stmt 1 discriminator 2 view .LVU633
 472:Drivers/STM32F3xx_HAL_Driver/Src/stm32f3xx_hal_i2s.c **** 
 2032              		.loc 1 472 17 is_stmt 0 discriminator 2 view .LVU634
 2033 0054 0422     		movs	r2, #4
 2034 0056 84F83D20 		strb	r2, [r4, #61]
 475:Drivers/STM32F3xx_HAL_Driver/Src/stm32f3xx_hal_i2s.c ****     {
 2035              		.loc 1 475 5 is_stmt 1 discriminator 2 view .LVU635
 475:Drivers/STM32F3xx_HAL_Driver/Src/stm32f3xx_hal_i2s.c ****     {
 2036              		.loc 1 475 23 is_stmt 0 discriminator 2 view .LVU636
 2037 005a DA69     		ldr	r2, [r3, #28]
 475:Drivers/STM32F3xx_HAL_Driver/Src/stm32f3xx_hal_i2s.c ****     {
 2038              		.loc 1 475 7 discriminator 2 view .LVU637
 2039 005c 12F4806F 		tst	r2, #1024
 2040 0060 03D1     		bne	.L143
 478:Drivers/STM32F3xx_HAL_Driver/Src/stm32f3xx_hal_i2s.c ****     }
 2041              		.loc 1 478 7 is_stmt 1 view .LVU638
 2042 0062 DA69     		ldr	r2, [r3, #28]
 2043 0064 42F48062 		orr	r2, r2, #1024
 2044 0068 DA61     		str	r2, [r3, #28]
 2045              	.L143:
 482:Drivers/STM32F3xx_HAL_Driver/Src/stm32f3xx_hal_i2s.c ****     {
 2046              		.loc 1 482 5 view .LVU639
 482:Drivers/STM32F3xx_HAL_Driver/Src/stm32f3xx_hal_i2s.c ****     {
 2047              		.loc 1 482 13 is_stmt 0 view .LVU640
 2048 006a 2268     		ldr	r2, [r4]
 482:Drivers/STM32F3xx_HAL_Driver/Src/stm32f3xx_hal_i2s.c ****     {
 2049              		.loc 1 482 23 view .LVU641
ARM GAS  C:\Users\SHINRA~1\AppData\Local\Temp\ccBXzGic.s 			page 70


 2050 006c D369     		ldr	r3, [r2, #28]
 482:Drivers/STM32F3xx_HAL_Driver/Src/stm32f3xx_hal_i2s.c ****     {
 2051              		.loc 1 482 33 view .LVU642
 2052 006e 03F44073 		and	r3, r3, #768
 482:Drivers/STM32F3xx_HAL_Driver/Src/stm32f3xx_hal_i2s.c ****     {
 2053              		.loc 1 482 7 view .LVU643
 2054 0072 B3F5407F 		cmp	r3, #768
 2055 0076 1AD0     		beq	.L154
 2056              	.LVL120:
 2057              	.L145:
 490:Drivers/STM32F3xx_HAL_Driver/Src/stm32f3xx_hal_i2s.c ****     {
 2058              		.loc 1 490 10 is_stmt 1 view .LVU644
 490:Drivers/STM32F3xx_HAL_Driver/Src/stm32f3xx_hal_i2s.c ****     {
 2059              		.loc 1 490 15 is_stmt 0 view .LVU645
 2060 0078 628E     		ldrh	r2, [r4, #50]
 2061 007a 92B2     		uxth	r2, r2
 490:Drivers/STM32F3xx_HAL_Driver/Src/stm32f3xx_hal_i2s.c ****     {
 2062              		.loc 1 490 10 view .LVU646
 2063 007c 002A     		cmp	r2, #0
 2064 007e 33D0     		beq	.L155
 493:Drivers/STM32F3xx_HAL_Driver/Src/stm32f3xx_hal_i2s.c ****       {
 2065              		.loc 1 493 7 is_stmt 1 view .LVU647
 493:Drivers/STM32F3xx_HAL_Driver/Src/stm32f3xx_hal_i2s.c ****       {
 2066              		.loc 1 493 11 is_stmt 0 view .LVU648
 2067 0080 2B46     		mov	r3, r5
 2068 0082 0022     		movs	r2, #0
 2069 0084 0121     		movs	r1, #1
 2070 0086 2046     		mov	r0, r4
 2071 0088 FFF7FEFF 		bl	I2S_WaitFlagStateUntilTimeout
 2072              	.LVL121:
 493:Drivers/STM32F3xx_HAL_Driver/Src/stm32f3xx_hal_i2s.c ****       {
 2073              		.loc 1 493 10 view .LVU649
 2074 008c A8B9     		cbnz	r0, .L156
 502:Drivers/STM32F3xx_HAL_Driver/Src/stm32f3xx_hal_i2s.c ****       {
 2075              		.loc 1 502 7 is_stmt 1 view .LVU650
 502:Drivers/STM32F3xx_HAL_Driver/Src/stm32f3xx_hal_i2s.c ****       {
 2076              		.loc 1 502 10 is_stmt 0 view .LVU651
 2077 008e 2368     		ldr	r3, [r4]
 2078 0090 9A68     		ldr	r2, [r3, #8]
 502:Drivers/STM32F3xx_HAL_Driver/Src/stm32f3xx_hal_i2s.c ****       {
 2079              		.loc 1 502 9 view .LVU652
 2080 0092 12F0400F 		tst	r2, #64
 2081 0096 19D1     		bne	.L157
 517:Drivers/STM32F3xx_HAL_Driver/Src/stm32f3xx_hal_i2s.c ****       hi2s->RxXferCount--;
 2082              		.loc 1 517 7 is_stmt 1 view .LVU653
 517:Drivers/STM32F3xx_HAL_Driver/Src/stm32f3xx_hal_i2s.c ****       hi2s->RxXferCount--;
 2083              		.loc 1 517 34 is_stmt 0 view .LVU654
 2084 0098 DA68     		ldr	r2, [r3, #12]
 517:Drivers/STM32F3xx_HAL_Driver/Src/stm32f3xx_hal_i2s.c ****       hi2s->RxXferCount--;
 2085              		.loc 1 517 14 view .LVU655
 2086 009a 3B46     		mov	r3, r7
 2087              	.LVL122:
 517:Drivers/STM32F3xx_HAL_Driver/Src/stm32f3xx_hal_i2s.c ****       hi2s->RxXferCount--;
 2088              		.loc 1 517 18 view .LVU656
 2089 009c 23F8022B 		strh	r2, [r3], #2	@ movhi
 2090              	.LVL123:
 518:Drivers/STM32F3xx_HAL_Driver/Src/stm32f3xx_hal_i2s.c ****     }
ARM GAS  C:\Users\SHINRA~1\AppData\Local\Temp\ccBXzGic.s 			page 71


 2091              		.loc 1 518 7 is_stmt 1 view .LVU657
 518:Drivers/STM32F3xx_HAL_Driver/Src/stm32f3xx_hal_i2s.c ****     }
 2092              		.loc 1 518 11 is_stmt 0 view .LVU658
 2093 00a0 628E     		ldrh	r2, [r4, #50]
 2094 00a2 92B2     		uxth	r2, r2
 518:Drivers/STM32F3xx_HAL_Driver/Src/stm32f3xx_hal_i2s.c ****     }
 2095              		.loc 1 518 24 view .LVU659
 2096 00a4 013A     		subs	r2, r2, #1
 2097 00a6 92B2     		uxth	r2, r2
 2098 00a8 6286     		strh	r2, [r4, #50]	@ movhi
 517:Drivers/STM32F3xx_HAL_Driver/Src/stm32f3xx_hal_i2s.c ****       hi2s->RxXferCount--;
 2099              		.loc 1 517 14 view .LVU660
 2100 00aa 1F46     		mov	r7, r3
 2101 00ac E4E7     		b	.L145
 2102              	.LVL124:
 2103              	.L154:
 486:Drivers/STM32F3xx_HAL_Driver/Src/stm32f3xx_hal_i2s.c ****     }
 2104              		.loc 1 486 7 is_stmt 1 view .LVU661
 2105              	.LBB3:
 486:Drivers/STM32F3xx_HAL_Driver/Src/stm32f3xx_hal_i2s.c ****     }
 2106              		.loc 1 486 7 view .LVU662
 486:Drivers/STM32F3xx_HAL_Driver/Src/stm32f3xx_hal_i2s.c ****     }
 2107              		.loc 1 486 7 view .LVU663
 2108 00ae D368     		ldr	r3, [r2, #12]
 2109 00b0 0193     		str	r3, [sp, #4]
 486:Drivers/STM32F3xx_HAL_Driver/Src/stm32f3xx_hal_i2s.c ****     }
 2110              		.loc 1 486 7 view .LVU664
 2111 00b2 9368     		ldr	r3, [r2, #8]
 2112 00b4 0193     		str	r3, [sp, #4]
 486:Drivers/STM32F3xx_HAL_Driver/Src/stm32f3xx_hal_i2s.c ****     }
 2113              		.loc 1 486 7 view .LVU665
 2114 00b6 019B     		ldr	r3, [sp, #4]
 2115 00b8 DEE7     		b	.L145
 2116              	.LVL125:
 2117              	.L156:
 486:Drivers/STM32F3xx_HAL_Driver/Src/stm32f3xx_hal_i2s.c ****     }
 2118              		.loc 1 486 7 is_stmt 0 view .LVU666
 2119              	.LBE3:
 496:Drivers/STM32F3xx_HAL_Driver/Src/stm32f3xx_hal_i2s.c ****         HAL_I2S_ErrorCallback(hi2s);
 2120              		.loc 1 496 9 is_stmt 1 view .LVU667
 496:Drivers/STM32F3xx_HAL_Driver/Src/stm32f3xx_hal_i2s.c ****         HAL_I2S_ErrorCallback(hi2s);
 2121              		.loc 1 496 25 is_stmt 0 view .LVU668
 2122 00ba 236C     		ldr	r3, [r4, #64]
 2123 00bc 43F00103 		orr	r3, r3, #1
 2124 00c0 2364     		str	r3, [r4, #64]
 497:Drivers/STM32F3xx_HAL_Driver/Src/stm32f3xx_hal_i2s.c ****         return HAL_TIMEOUT;
 2125              		.loc 1 497 9 is_stmt 1 view .LVU669
 2126 00c2 2046     		mov	r0, r4
 2127 00c4 FFF7FEFF 		bl	HAL_I2S_ErrorCallback
 2128              	.LVL126:
 498:Drivers/STM32F3xx_HAL_Driver/Src/stm32f3xx_hal_i2s.c ****       }
 2129              		.loc 1 498 9 view .LVU670
 498:Drivers/STM32F3xx_HAL_Driver/Src/stm32f3xx_hal_i2s.c ****       }
 2130              		.loc 1 498 16 is_stmt 0 view .LVU671
 2131 00c8 0326     		movs	r6, #3
 2132 00ca 17E0     		b	.L139
 2133              	.L157:
ARM GAS  C:\Users\SHINRA~1\AppData\Local\Temp\ccBXzGic.s 			page 72


 505:Drivers/STM32F3xx_HAL_Driver/Src/stm32f3xx_hal_i2s.c **** 
 2134              		.loc 1 505 9 is_stmt 1 view .LVU672
 505:Drivers/STM32F3xx_HAL_Driver/Src/stm32f3xx_hal_i2s.c **** 
 2135              		.loc 1 505 21 is_stmt 0 view .LVU673
 2136 00cc 0123     		movs	r3, #1
 2137 00ce 84F83D30 		strb	r3, [r4, #61]
 508:Drivers/STM32F3xx_HAL_Driver/Src/stm32f3xx_hal_i2s.c **** 
 2138              		.loc 1 508 9 is_stmt 1 view .LVU674
 508:Drivers/STM32F3xx_HAL_Driver/Src/stm32f3xx_hal_i2s.c **** 
 2139              		.loc 1 508 9 view .LVU675
 2140 00d2 0023     		movs	r3, #0
 2141 00d4 84F83C30 		strb	r3, [r4, #60]
 508:Drivers/STM32F3xx_HAL_Driver/Src/stm32f3xx_hal_i2s.c **** 
 2142              		.loc 1 508 9 view .LVU676
 511:Drivers/STM32F3xx_HAL_Driver/Src/stm32f3xx_hal_i2s.c ****         HAL_I2S_ErrorCallback(hi2s);
 2143              		.loc 1 511 9 view .LVU677
 511:Drivers/STM32F3xx_HAL_Driver/Src/stm32f3xx_hal_i2s.c ****         HAL_I2S_ErrorCallback(hi2s);
 2144              		.loc 1 511 25 is_stmt 0 view .LVU678
 2145 00d8 236C     		ldr	r3, [r4, #64]
 2146 00da 43F00203 		orr	r3, r3, #2
 2147 00de 2364     		str	r3, [r4, #64]
 512:Drivers/STM32F3xx_HAL_Driver/Src/stm32f3xx_hal_i2s.c **** 
 2148              		.loc 1 512 9 is_stmt 1 view .LVU679
 2149 00e0 2046     		mov	r0, r4
 2150 00e2 FFF7FEFF 		bl	HAL_I2S_ErrorCallback
 2151              	.LVL127:
 514:Drivers/STM32F3xx_HAL_Driver/Src/stm32f3xx_hal_i2s.c ****       }
 2152              		.loc 1 514 9 view .LVU680
 514:Drivers/STM32F3xx_HAL_Driver/Src/stm32f3xx_hal_i2s.c ****       }
 2153              		.loc 1 514 16 is_stmt 0 view .LVU681
 2154 00e6 09E0     		b	.L139
 2155              	.L155:
 521:Drivers/STM32F3xx_HAL_Driver/Src/stm32f3xx_hal_i2s.c ****     
 2156              		.loc 1 521 5 is_stmt 1 view .LVU682
 521:Drivers/STM32F3xx_HAL_Driver/Src/stm32f3xx_hal_i2s.c ****     
 2157              		.loc 1 521 17 is_stmt 0 view .LVU683
 2158 00e8 0123     		movs	r3, #1
 2159 00ea 84F83D30 		strb	r3, [r4, #61]
 524:Drivers/STM32F3xx_HAL_Driver/Src/stm32f3xx_hal_i2s.c ****     
 2160              		.loc 1 524 5 is_stmt 1 view .LVU684
 524:Drivers/STM32F3xx_HAL_Driver/Src/stm32f3xx_hal_i2s.c ****     
 2161              		.loc 1 524 5 view .LVU685
 2162 00ee 0026     		movs	r6, #0
 2163 00f0 84F83C60 		strb	r6, [r4, #60]
 524:Drivers/STM32F3xx_HAL_Driver/Src/stm32f3xx_hal_i2s.c ****     
 2164              		.loc 1 524 5 view .LVU686
 526:Drivers/STM32F3xx_HAL_Driver/Src/stm32f3xx_hal_i2s.c ****   }
 2165              		.loc 1 526 5 view .LVU687
 526:Drivers/STM32F3xx_HAL_Driver/Src/stm32f3xx_hal_i2s.c ****   }
 2166              		.loc 1 526 12 is_stmt 0 view .LVU688
 2167 00f4 02E0     		b	.L139
 2168              	.LVL128:
 2169              	.L149:
 452:Drivers/STM32F3xx_HAL_Driver/Src/stm32f3xx_hal_i2s.c ****   }
 2170              		.loc 1 452 13 view .LVU689
 2171 00f6 0126     		movs	r6, #1
 2172 00f8 00E0     		b	.L139
ARM GAS  C:\Users\SHINRA~1\AppData\Local\Temp\ccBXzGic.s 			page 73


 2173              	.L150:
 452:Drivers/STM32F3xx_HAL_Driver/Src/stm32f3xx_hal_i2s.c ****   }
 2174              		.loc 1 452 13 view .LVU690
 2175 00fa 0126     		movs	r6, #1
 2176              	.LVL129:
 2177              	.L139:
 532:Drivers/STM32F3xx_HAL_Driver/Src/stm32f3xx_hal_i2s.c **** 
 2178              		.loc 1 532 1 view .LVU691
 2179 00fc 3046     		mov	r0, r6
 2180 00fe 03B0     		add	sp, sp, #12
 2181              	.LCFI23:
 2182              		.cfi_remember_state
 2183              		.cfi_def_cfa_offset 20
 2184              		@ sp needed
 2185 0100 F0BD     		pop	{r4, r5, r6, r7, pc}
 2186              	.LVL130:
 2187              	.L151:
 2188              	.LCFI24:
 2189              		.cfi_restore_state
 530:Drivers/STM32F3xx_HAL_Driver/Src/stm32f3xx_hal_i2s.c ****   }
 2190              		.loc 1 530 12 view .LVU692
 2191 0102 0226     		movs	r6, #2
 2192 0104 FAE7     		b	.L139
 2193              	.LVL131:
 2194              	.L152:
 469:Drivers/STM32F3xx_HAL_Driver/Src/stm32f3xx_hal_i2s.c **** 
 2195              		.loc 1 469 5 view .LVU693
 2196 0106 0226     		movs	r6, #2
 2197 0108 F8E7     		b	.L139
 2198              		.cfi_endproc
 2199              	.LFE131:
 2201              		.section	.text.I2S_DMAError,"ax",%progbits
 2202              		.align	1
 2203              		.syntax unified
 2204              		.thumb
 2205              		.thumb_func
 2206              		.fpu fpv4-sp-d16
 2208              	I2S_DMAError:
 2209              	.LVL132:
 2210              	.LFB151:
1206:Drivers/STM32F3xx_HAL_Driver/Src/stm32f3xx_hal_i2s.c ****   I2S_HandleTypeDef* hi2s = ( I2S_HandleTypeDef* )((DMA_HandleTypeDef* )hdma)->Parent;
 2211              		.loc 1 1206 1 is_stmt 1 view -0
 2212              		.cfi_startproc
 2213              		@ args = 0, pretend = 0, frame = 0
 2214              		@ frame_needed = 0, uses_anonymous_args = 0
1206:Drivers/STM32F3xx_HAL_Driver/Src/stm32f3xx_hal_i2s.c ****   I2S_HandleTypeDef* hi2s = ( I2S_HandleTypeDef* )((DMA_HandleTypeDef* )hdma)->Parent;
 2215              		.loc 1 1206 1 is_stmt 0 view .LVU695
 2216 0000 08B5     		push	{r3, lr}
 2217              	.LCFI25:
 2218              		.cfi_def_cfa_offset 8
 2219              		.cfi_offset 3, -8
 2220              		.cfi_offset 14, -4
1207:Drivers/STM32F3xx_HAL_Driver/Src/stm32f3xx_hal_i2s.c ****   
 2221              		.loc 1 1207 3 is_stmt 1 view .LVU696
1207:Drivers/STM32F3xx_HAL_Driver/Src/stm32f3xx_hal_i2s.c ****   
 2222              		.loc 1 1207 22 is_stmt 0 view .LVU697
 2223 0002 406A     		ldr	r0, [r0, #36]
ARM GAS  C:\Users\SHINRA~1\AppData\Local\Temp\ccBXzGic.s 			page 74


 2224              	.LVL133:
1210:Drivers/STM32F3xx_HAL_Driver/Src/stm32f3xx_hal_i2s.c ****   hi2s->TxXferCount = 0U;
 2225              		.loc 1 1210 3 is_stmt 1 view .LVU698
1210:Drivers/STM32F3xx_HAL_Driver/Src/stm32f3xx_hal_i2s.c ****   hi2s->TxXferCount = 0U;
 2226              		.loc 1 1210 7 is_stmt 0 view .LVU699
 2227 0004 0268     		ldr	r2, [r0]
1210:Drivers/STM32F3xx_HAL_Driver/Src/stm32f3xx_hal_i2s.c ****   hi2s->TxXferCount = 0U;
 2228              		.loc 1 1210 23 view .LVU700
 2229 0006 5368     		ldr	r3, [r2, #4]
 2230 0008 23F00303 		bic	r3, r3, #3
 2231 000c 5360     		str	r3, [r2, #4]
1211:Drivers/STM32F3xx_HAL_Driver/Src/stm32f3xx_hal_i2s.c ****   hi2s->RxXferCount = 0U;
 2232              		.loc 1 1211 3 is_stmt 1 view .LVU701
1211:Drivers/STM32F3xx_HAL_Driver/Src/stm32f3xx_hal_i2s.c ****   hi2s->RxXferCount = 0U;
 2233              		.loc 1 1211 21 is_stmt 0 view .LVU702
 2234 000e 0023     		movs	r3, #0
 2235 0010 4385     		strh	r3, [r0, #42]	@ movhi
1212:Drivers/STM32F3xx_HAL_Driver/Src/stm32f3xx_hal_i2s.c ****   
 2236              		.loc 1 1212 3 is_stmt 1 view .LVU703
1212:Drivers/STM32F3xx_HAL_Driver/Src/stm32f3xx_hal_i2s.c ****   
 2237              		.loc 1 1212 21 is_stmt 0 view .LVU704
 2238 0012 4386     		strh	r3, [r0, #50]	@ movhi
1214:Drivers/STM32F3xx_HAL_Driver/Src/stm32f3xx_hal_i2s.c **** 
 2239              		.loc 1 1214 3 is_stmt 1 view .LVU705
1214:Drivers/STM32F3xx_HAL_Driver/Src/stm32f3xx_hal_i2s.c **** 
 2240              		.loc 1 1214 14 is_stmt 0 view .LVU706
 2241 0014 0123     		movs	r3, #1
 2242 0016 80F83D30 		strb	r3, [r0, #61]
1217:Drivers/STM32F3xx_HAL_Driver/Src/stm32f3xx_hal_i2s.c ****   HAL_I2S_ErrorCallback(hi2s);
 2243              		.loc 1 1217 3 is_stmt 1 view .LVU707
1217:Drivers/STM32F3xx_HAL_Driver/Src/stm32f3xx_hal_i2s.c ****   HAL_I2S_ErrorCallback(hi2s);
 2244              		.loc 1 1217 19 is_stmt 0 view .LVU708
 2245 001a 036C     		ldr	r3, [r0, #64]
 2246 001c 43F00803 		orr	r3, r3, #8
 2247 0020 0364     		str	r3, [r0, #64]
1218:Drivers/STM32F3xx_HAL_Driver/Src/stm32f3xx_hal_i2s.c **** }
 2248              		.loc 1 1218 3 is_stmt 1 view .LVU709
 2249 0022 FFF7FEFF 		bl	HAL_I2S_ErrorCallback
 2250              	.LVL134:
1219:Drivers/STM32F3xx_HAL_Driver/Src/stm32f3xx_hal_i2s.c **** 
 2251              		.loc 1 1219 1 is_stmt 0 view .LVU710
 2252 0026 08BD     		pop	{r3, pc}
 2253              		.cfi_endproc
 2254              	.LFE151:
 2256              		.section	.text.HAL_I2S_IRQHandler,"ax",%progbits
 2257              		.align	1
 2258              		.global	HAL_I2S_IRQHandler
 2259              		.syntax unified
 2260              		.thumb
 2261              		.thumb_func
 2262              		.fpu fpv4-sp-d16
 2264              	HAL_I2S_IRQHandler:
 2265              	.LVL135:
 2266              	.LFB139:
 935:Drivers/STM32F3xx_HAL_Driver/Src/stm32f3xx_hal_i2s.c ****   __IO uint32_t i2ssr = hi2s->Instance->SR;
 2267              		.loc 1 935 1 is_stmt 1 view -0
 2268              		.cfi_startproc
ARM GAS  C:\Users\SHINRA~1\AppData\Local\Temp\ccBXzGic.s 			page 75


 2269              		@ args = 0, pretend = 0, frame = 8
 2270              		@ frame_needed = 0, uses_anonymous_args = 0
 935:Drivers/STM32F3xx_HAL_Driver/Src/stm32f3xx_hal_i2s.c ****   __IO uint32_t i2ssr = hi2s->Instance->SR;
 2271              		.loc 1 935 1 is_stmt 0 view .LVU712
 2272 0000 10B5     		push	{r4, lr}
 2273              	.LCFI26:
 2274              		.cfi_def_cfa_offset 8
 2275              		.cfi_offset 4, -8
 2276              		.cfi_offset 14, -4
 2277 0002 82B0     		sub	sp, sp, #8
 2278              	.LCFI27:
 2279              		.cfi_def_cfa_offset 16
 2280 0004 0446     		mov	r4, r0
 936:Drivers/STM32F3xx_HAL_Driver/Src/stm32f3xx_hal_i2s.c **** 
 2281              		.loc 1 936 3 is_stmt 1 view .LVU713
 936:Drivers/STM32F3xx_HAL_Driver/Src/stm32f3xx_hal_i2s.c **** 
 2282              		.loc 1 936 29 is_stmt 0 view .LVU714
 2283 0006 0268     		ldr	r2, [r0]
 936:Drivers/STM32F3xx_HAL_Driver/Src/stm32f3xx_hal_i2s.c **** 
 2284              		.loc 1 936 39 view .LVU715
 2285 0008 9368     		ldr	r3, [r2, #8]
 936:Drivers/STM32F3xx_HAL_Driver/Src/stm32f3xx_hal_i2s.c **** 
 2286              		.loc 1 936 17 view .LVU716
 2287 000a 0193     		str	r3, [sp, #4]
 938:Drivers/STM32F3xx_HAL_Driver/Src/stm32f3xx_hal_i2s.c ****   {  
 2288              		.loc 1 938 3 is_stmt 1 view .LVU717
 938:Drivers/STM32F3xx_HAL_Driver/Src/stm32f3xx_hal_i2s.c ****   {  
 2289              		.loc 1 938 10 is_stmt 0 view .LVU718
 2290 000c 90F83D30 		ldrb	r3, [r0, #61]	@ zero_extendqisi2
 2291 0010 DBB2     		uxtb	r3, r3
 938:Drivers/STM32F3xx_HAL_Driver/Src/stm32f3xx_hal_i2s.c ****   {  
 2292              		.loc 1 938 5 view .LVU719
 2293 0012 042B     		cmp	r3, #4
 2294 0014 06D0     		beq	.L166
 960:Drivers/STM32F3xx_HAL_Driver/Src/stm32f3xx_hal_i2s.c ****   {  
 2295              		.loc 1 960 8 is_stmt 1 view .LVU720
 960:Drivers/STM32F3xx_HAL_Driver/Src/stm32f3xx_hal_i2s.c ****   {  
 2296              		.loc 1 960 15 is_stmt 0 view .LVU721
 2297 0016 90F83D30 		ldrb	r3, [r0, #61]	@ zero_extendqisi2
 2298 001a DBB2     		uxtb	r3, r3
 960:Drivers/STM32F3xx_HAL_Driver/Src/stm32f3xx_hal_i2s.c ****   {  
 2299              		.loc 1 960 10 view .LVU722
 2300 001c 032B     		cmp	r3, #3
 2301 001e 26D0     		beq	.L167
 2302              	.LVL136:
 2303              	.L160:
 982:Drivers/STM32F3xx_HAL_Driver/Src/stm32f3xx_hal_i2s.c **** 
 2304              		.loc 1 982 1 view .LVU723
 2305 0020 02B0     		add	sp, sp, #8
 2306              	.LCFI28:
 2307              		.cfi_remember_state
 2308              		.cfi_def_cfa_offset 8
 2309              		@ sp needed
 2310 0022 10BD     		pop	{r4, pc}
 2311              	.LVL137:
 2312              	.L166:
 2313              	.LCFI29:
ARM GAS  C:\Users\SHINRA~1\AppData\Local\Temp\ccBXzGic.s 			page 76


 2314              		.cfi_restore_state
 941:Drivers/STM32F3xx_HAL_Driver/Src/stm32f3xx_hal_i2s.c ****     {
 2315              		.loc 1 941 5 is_stmt 1 view .LVU724
 941:Drivers/STM32F3xx_HAL_Driver/Src/stm32f3xx_hal_i2s.c ****     {
 2316              		.loc 1 941 16 is_stmt 0 view .LVU725
 2317 0024 019B     		ldr	r3, [sp, #4]
 941:Drivers/STM32F3xx_HAL_Driver/Src/stm32f3xx_hal_i2s.c ****     {
 2318              		.loc 1 941 7 view .LVU726
 2319 0026 13F0010F 		tst	r3, #1
 2320 002a 03D0     		beq	.L162
 941:Drivers/STM32F3xx_HAL_Driver/Src/stm32f3xx_hal_i2s.c ****     {
 2321              		.loc 1 941 55 discriminator 1 view .LVU727
 2322 002c 5368     		ldr	r3, [r2, #4]
 941:Drivers/STM32F3xx_HAL_Driver/Src/stm32f3xx_hal_i2s.c ****     {
 2323              		.loc 1 941 51 discriminator 1 view .LVU728
 2324 002e 13F0400F 		tst	r3, #64
 2325 0032 19D1     		bne	.L168
 2326              	.LVL138:
 2327              	.L162:
 947:Drivers/STM32F3xx_HAL_Driver/Src/stm32f3xx_hal_i2s.c ****     {
 2328              		.loc 1 947 5 is_stmt 1 view .LVU729
 947:Drivers/STM32F3xx_HAL_Driver/Src/stm32f3xx_hal_i2s.c ****     {
 2329              		.loc 1 947 16 is_stmt 0 view .LVU730
 2330 0034 019B     		ldr	r3, [sp, #4]
 947:Drivers/STM32F3xx_HAL_Driver/Src/stm32f3xx_hal_i2s.c ****     {
 2331              		.loc 1 947 7 view .LVU731
 2332 0036 13F0400F 		tst	r3, #64
 2333 003a F1D0     		beq	.L160
 947:Drivers/STM32F3xx_HAL_Driver/Src/stm32f3xx_hal_i2s.c ****     {
 2334              		.loc 1 947 53 discriminator 1 view .LVU732
 2335 003c 2368     		ldr	r3, [r4]
 2336 003e 5A68     		ldr	r2, [r3, #4]
 947:Drivers/STM32F3xx_HAL_Driver/Src/stm32f3xx_hal_i2s.c ****     {
 2337              		.loc 1 947 49 discriminator 1 view .LVU733
 2338 0040 12F0200F 		tst	r2, #32
 2339 0044 ECD0     		beq	.L160
 950:Drivers/STM32F3xx_HAL_Driver/Src/stm32f3xx_hal_i2s.c **** 
 2340              		.loc 1 950 7 is_stmt 1 view .LVU734
 2341 0046 5A68     		ldr	r2, [r3, #4]
 2342 0048 22F06002 		bic	r2, r2, #96
 2343 004c 1204     		lsls	r2, r2, #16
 2344 004e 120C     		lsrs	r2, r2, #16
 2345 0050 5A60     		str	r2, [r3, #4]
 953:Drivers/STM32F3xx_HAL_Driver/Src/stm32f3xx_hal_i2s.c **** 
 2346              		.loc 1 953 7 view .LVU735
 953:Drivers/STM32F3xx_HAL_Driver/Src/stm32f3xx_hal_i2s.c **** 
 2347              		.loc 1 953 19 is_stmt 0 view .LVU736
 2348 0052 0123     		movs	r3, #1
 2349 0054 84F83D30 		strb	r3, [r4, #61]
 956:Drivers/STM32F3xx_HAL_Driver/Src/stm32f3xx_hal_i2s.c ****       HAL_I2S_ErrorCallback(hi2s);
 2350              		.loc 1 956 7 is_stmt 1 view .LVU737
 956:Drivers/STM32F3xx_HAL_Driver/Src/stm32f3xx_hal_i2s.c ****       HAL_I2S_ErrorCallback(hi2s);
 2351              		.loc 1 956 23 is_stmt 0 view .LVU738
 2352 0058 236C     		ldr	r3, [r4, #64]
 2353 005a 43F00203 		orr	r3, r3, #2
 2354 005e 2364     		str	r3, [r4, #64]
 957:Drivers/STM32F3xx_HAL_Driver/Src/stm32f3xx_hal_i2s.c ****     }  
ARM GAS  C:\Users\SHINRA~1\AppData\Local\Temp\ccBXzGic.s 			page 77


 2355              		.loc 1 957 7 is_stmt 1 view .LVU739
 2356 0060 2046     		mov	r0, r4
 2357 0062 FFF7FEFF 		bl	HAL_I2S_ErrorCallback
 2358              	.LVL139:
 2359 0066 DBE7     		b	.L160
 2360              	.LVL140:
 2361              	.L168:
 943:Drivers/STM32F3xx_HAL_Driver/Src/stm32f3xx_hal_i2s.c ****     }
 2362              		.loc 1 943 7 view .LVU740
 2363 0068 FFF7FEFF 		bl	I2S_Receive_IT
 2364              	.LVL141:
 943:Drivers/STM32F3xx_HAL_Driver/Src/stm32f3xx_hal_i2s.c ****     }
 2365              		.loc 1 943 7 is_stmt 0 view .LVU741
 2366 006c E2E7     		b	.L162
 2367              	.LVL142:
 2368              	.L167:
 963:Drivers/STM32F3xx_HAL_Driver/Src/stm32f3xx_hal_i2s.c ****     {     
 2369              		.loc 1 963 5 is_stmt 1 view .LVU742
 963:Drivers/STM32F3xx_HAL_Driver/Src/stm32f3xx_hal_i2s.c ****     {     
 2370              		.loc 1 963 16 is_stmt 0 view .LVU743
 2371 006e 019B     		ldr	r3, [sp, #4]
 963:Drivers/STM32F3xx_HAL_Driver/Src/stm32f3xx_hal_i2s.c ****     {     
 2372              		.loc 1 963 7 view .LVU744
 2373 0070 13F0020F 		tst	r3, #2
 2374 0074 03D0     		beq	.L164
 963:Drivers/STM32F3xx_HAL_Driver/Src/stm32f3xx_hal_i2s.c ****     {     
 2375              		.loc 1 963 53 discriminator 1 view .LVU745
 2376 0076 5368     		ldr	r3, [r2, #4]
 963:Drivers/STM32F3xx_HAL_Driver/Src/stm32f3xx_hal_i2s.c ****     {     
 2377              		.loc 1 963 49 discriminator 1 view .LVU746
 2378 0078 13F0800F 		tst	r3, #128
 2379 007c 19D1     		bne	.L169
 2380              	.LVL143:
 2381              	.L164:
 969:Drivers/STM32F3xx_HAL_Driver/Src/stm32f3xx_hal_i2s.c ****     {
 2382              		.loc 1 969 5 is_stmt 1 view .LVU747
 969:Drivers/STM32F3xx_HAL_Driver/Src/stm32f3xx_hal_i2s.c ****     {
 2383              		.loc 1 969 16 is_stmt 0 view .LVU748
 2384 007e 019B     		ldr	r3, [sp, #4]
 969:Drivers/STM32F3xx_HAL_Driver/Src/stm32f3xx_hal_i2s.c ****     {
 2385              		.loc 1 969 7 view .LVU749
 2386 0080 13F0080F 		tst	r3, #8
 2387 0084 CCD0     		beq	.L160
 969:Drivers/STM32F3xx_HAL_Driver/Src/stm32f3xx_hal_i2s.c ****     {
 2388              		.loc 1 969 53 discriminator 1 view .LVU750
 2389 0086 2368     		ldr	r3, [r4]
 2390 0088 5A68     		ldr	r2, [r3, #4]
 969:Drivers/STM32F3xx_HAL_Driver/Src/stm32f3xx_hal_i2s.c ****     {
 2391              		.loc 1 969 49 discriminator 1 view .LVU751
 2392 008a 12F0200F 		tst	r2, #32
 2393 008e C7D0     		beq	.L160
 972:Drivers/STM32F3xx_HAL_Driver/Src/stm32f3xx_hal_i2s.c **** 
 2394              		.loc 1 972 7 is_stmt 1 view .LVU752
 2395 0090 5A68     		ldr	r2, [r3, #4]
 2396 0092 22F0A002 		bic	r2, r2, #160
 2397 0096 1204     		lsls	r2, r2, #16
 2398 0098 120C     		lsrs	r2, r2, #16
ARM GAS  C:\Users\SHINRA~1\AppData\Local\Temp\ccBXzGic.s 			page 78


 2399 009a 5A60     		str	r2, [r3, #4]
 975:Drivers/STM32F3xx_HAL_Driver/Src/stm32f3xx_hal_i2s.c **** 
 2400              		.loc 1 975 7 view .LVU753
 975:Drivers/STM32F3xx_HAL_Driver/Src/stm32f3xx_hal_i2s.c **** 
 2401              		.loc 1 975 19 is_stmt 0 view .LVU754
 2402 009c 0123     		movs	r3, #1
 2403 009e 84F83D30 		strb	r3, [r4, #61]
 978:Drivers/STM32F3xx_HAL_Driver/Src/stm32f3xx_hal_i2s.c ****       HAL_I2S_ErrorCallback(hi2s);
 2404              		.loc 1 978 7 is_stmt 1 view .LVU755
 978:Drivers/STM32F3xx_HAL_Driver/Src/stm32f3xx_hal_i2s.c ****       HAL_I2S_ErrorCallback(hi2s);
 2405              		.loc 1 978 23 is_stmt 0 view .LVU756
 2406 00a2 236C     		ldr	r3, [r4, #64]
 2407 00a4 43F00403 		orr	r3, r3, #4
 2408 00a8 2364     		str	r3, [r4, #64]
 979:Drivers/STM32F3xx_HAL_Driver/Src/stm32f3xx_hal_i2s.c ****     }
 2409              		.loc 1 979 7 is_stmt 1 view .LVU757
 2410 00aa 2046     		mov	r0, r4
 2411 00ac FFF7FEFF 		bl	HAL_I2S_ErrorCallback
 2412              	.LVL144:
 982:Drivers/STM32F3xx_HAL_Driver/Src/stm32f3xx_hal_i2s.c **** 
 2413              		.loc 1 982 1 is_stmt 0 view .LVU758
 2414 00b0 B6E7     		b	.L160
 2415              	.LVL145:
 2416              	.L169:
 965:Drivers/STM32F3xx_HAL_Driver/Src/stm32f3xx_hal_i2s.c ****     } 
 2417              		.loc 1 965 7 is_stmt 1 view .LVU759
 2418 00b2 FFF7FEFF 		bl	I2S_Transmit_IT
 2419              	.LVL146:
 965:Drivers/STM32F3xx_HAL_Driver/Src/stm32f3xx_hal_i2s.c ****     } 
 2420              		.loc 1 965 7 is_stmt 0 view .LVU760
 2421 00b6 E2E7     		b	.L164
 2422              		.cfi_endproc
 2423              	.LFE139:
 2425              		.section	.text.HAL_I2S_GetState,"ax",%progbits
 2426              		.align	1
 2427              		.global	HAL_I2S_GetState
 2428              		.syntax unified
 2429              		.thumb
 2430              		.thumb_func
 2431              		.fpu fpv4-sp-d16
 2433              	HAL_I2S_GetState:
 2434              	.LVL147:
 2435              	.LFB145:
1107:Drivers/STM32F3xx_HAL_Driver/Src/stm32f3xx_hal_i2s.c ****   return hi2s->State;
 2436              		.loc 1 1107 1 is_stmt 1 view -0
 2437              		.cfi_startproc
 2438              		@ args = 0, pretend = 0, frame = 0
 2439              		@ frame_needed = 0, uses_anonymous_args = 0
 2440              		@ link register save eliminated.
1108:Drivers/STM32F3xx_HAL_Driver/Src/stm32f3xx_hal_i2s.c **** }
 2441              		.loc 1 1108 3 view .LVU762
1108:Drivers/STM32F3xx_HAL_Driver/Src/stm32f3xx_hal_i2s.c **** }
 2442              		.loc 1 1108 14 is_stmt 0 view .LVU763
 2443 0000 90F83D00 		ldrb	r0, [r0, #61]	@ zero_extendqisi2
 2444              	.LVL148:
1109:Drivers/STM32F3xx_HAL_Driver/Src/stm32f3xx_hal_i2s.c **** 
 2445              		.loc 1 1109 1 view .LVU764
ARM GAS  C:\Users\SHINRA~1\AppData\Local\Temp\ccBXzGic.s 			page 79


 2446 0004 7047     		bx	lr
 2447              		.cfi_endproc
 2448              	.LFE145:
 2450              		.section	.text.HAL_I2S_GetError,"ax",%progbits
 2451              		.align	1
 2452              		.global	HAL_I2S_GetError
 2453              		.syntax unified
 2454              		.thumb
 2455              		.thumb_func
 2456              		.fpu fpv4-sp-d16
 2458              	HAL_I2S_GetError:
 2459              	.LVL149:
 2460              	.LFB146:
1118:Drivers/STM32F3xx_HAL_Driver/Src/stm32f3xx_hal_i2s.c ****   return hi2s->ErrorCode;
 2461              		.loc 1 1118 1 is_stmt 1 view -0
 2462              		.cfi_startproc
 2463              		@ args = 0, pretend = 0, frame = 0
 2464              		@ frame_needed = 0, uses_anonymous_args = 0
 2465              		@ link register save eliminated.
1119:Drivers/STM32F3xx_HAL_Driver/Src/stm32f3xx_hal_i2s.c **** }
 2466              		.loc 1 1119 3 view .LVU766
1119:Drivers/STM32F3xx_HAL_Driver/Src/stm32f3xx_hal_i2s.c **** }
 2467              		.loc 1 1119 14 is_stmt 0 view .LVU767
 2468 0000 006C     		ldr	r0, [r0, #64]
 2469              	.LVL150:
1120:Drivers/STM32F3xx_HAL_Driver/Src/stm32f3xx_hal_i2s.c **** /**
 2470              		.loc 1 1120 1 view .LVU768
 2471 0002 7047     		bx	lr
 2472              		.cfi_endproc
 2473              	.LFE146:
 2475              		.text
 2476              	.Letext0:
 2477              		.file 2 "c:\\program files (x86)\\gnu tools arm embedded\\9 2019-q4-major\\arm-none-eabi\\include\
 2478              		.file 3 "c:\\program files (x86)\\gnu tools arm embedded\\9 2019-q4-major\\arm-none-eabi\\include\
 2479              		.file 4 "Drivers/CMSIS/Include/core_cm4.h"
 2480              		.file 5 "Drivers/CMSIS/Device/ST/STM32F3xx/Include/system_stm32f3xx.h"
 2481              		.file 6 "Drivers/CMSIS/Device/ST/STM32F3xx/Include/stm32f303xc.h"
 2482              		.file 7 "c:\\program files (x86)\\gnu tools arm embedded\\9 2019-q4-major\\arm-none-eabi\\include\
 2483              		.file 8 "c:\\program files (x86)\\gnu tools arm embedded\\9 2019-q4-major\\arm-none-eabi\\include\
 2484              		.file 9 "c:\\program files (x86)\\gnu tools arm embedded\\9 2019-q4-major\\lib\\gcc\\arm-none-eabi
 2485              		.file 10 "c:\\program files (x86)\\gnu tools arm embedded\\9 2019-q4-major\\arm-none-eabi\\include
 2486              		.file 11 "Drivers/CMSIS/Device/ST/STM32F3xx/Include/stm32f3xx.h"
 2487              		.file 12 "Drivers/STM32F3xx_HAL_Driver/Inc/stm32f3xx_hal_def.h"
 2488              		.file 13 "Drivers/STM32F3xx_HAL_Driver/Inc/stm32f3xx_hal_dma.h"
 2489              		.file 14 "Drivers/STM32F3xx_HAL_Driver/Inc/stm32f3xx_hal_i2s.h"
 2490              		.file 15 "Drivers/STM32F3xx_HAL_Driver/Inc/stm32f3xx_hal.h"
ARM GAS  C:\Users\SHINRA~1\AppData\Local\Temp\ccBXzGic.s 			page 80


DEFINED SYMBOLS
                            *ABS*:00000000 stm32f3xx_hal_i2s.c
C:\Users\SHINRA~1\AppData\Local\Temp\ccBXzGic.s:18     .text.I2S_WaitFlagStateUntilTimeout:00000000 $t
C:\Users\SHINRA~1\AppData\Local\Temp\ccBXzGic.s:25     .text.I2S_WaitFlagStateUntilTimeout:00000000 I2S_WaitFlagStateUntilTimeout
C:\Users\SHINRA~1\AppData\Local\Temp\ccBXzGic.s:148    .text.HAL_I2S_Init:00000000 $t
C:\Users\SHINRA~1\AppData\Local\Temp\ccBXzGic.s:155    .text.HAL_I2S_Init:00000000 HAL_I2S_Init
C:\Users\SHINRA~1\AppData\Local\Temp\ccBXzGic.s:174    .text.HAL_I2S_MspInit:00000000 $t
C:\Users\SHINRA~1\AppData\Local\Temp\ccBXzGic.s:181    .text.HAL_I2S_MspInit:00000000 HAL_I2S_MspInit
C:\Users\SHINRA~1\AppData\Local\Temp\ccBXzGic.s:196    .text.HAL_I2S_MspDeInit:00000000 $t
C:\Users\SHINRA~1\AppData\Local\Temp\ccBXzGic.s:203    .text.HAL_I2S_MspDeInit:00000000 HAL_I2S_MspDeInit
C:\Users\SHINRA~1\AppData\Local\Temp\ccBXzGic.s:218    .text.HAL_I2S_DeInit:00000000 $t
C:\Users\SHINRA~1\AppData\Local\Temp\ccBXzGic.s:225    .text.HAL_I2S_DeInit:00000000 HAL_I2S_DeInit
C:\Users\SHINRA~1\AppData\Local\Temp\ccBXzGic.s:279    .text.HAL_I2S_Transmit_IT:00000000 $t
C:\Users\SHINRA~1\AppData\Local\Temp\ccBXzGic.s:286    .text.HAL_I2S_Transmit_IT:00000000 HAL_I2S_Transmit_IT
C:\Users\SHINRA~1\AppData\Local\Temp\ccBXzGic.s:414    .text.HAL_I2S_Receive_IT:00000000 $t
C:\Users\SHINRA~1\AppData\Local\Temp\ccBXzGic.s:421    .text.HAL_I2S_Receive_IT:00000000 HAL_I2S_Receive_IT
C:\Users\SHINRA~1\AppData\Local\Temp\ccBXzGic.s:549    .text.HAL_I2S_Transmit_DMA:00000000 $t
C:\Users\SHINRA~1\AppData\Local\Temp\ccBXzGic.s:556    .text.HAL_I2S_Transmit_DMA:00000000 HAL_I2S_Transmit_DMA
C:\Users\SHINRA~1\AppData\Local\Temp\ccBXzGic.s:748    .text.HAL_I2S_Transmit_DMA:000000b0 $d
C:\Users\SHINRA~1\AppData\Local\Temp\ccBXzGic.s:1304   .text.I2S_DMATxHalfCplt:00000000 I2S_DMATxHalfCplt
C:\Users\SHINRA~1\AppData\Local\Temp\ccBXzGic.s:1359   .text.I2S_DMATxCplt:00000000 I2S_DMATxCplt
C:\Users\SHINRA~1\AppData\Local\Temp\ccBXzGic.s:2208   .text.I2S_DMAError:00000000 I2S_DMAError
C:\Users\SHINRA~1\AppData\Local\Temp\ccBXzGic.s:755    .text.HAL_I2S_Receive_DMA:00000000 $t
C:\Users\SHINRA~1\AppData\Local\Temp\ccBXzGic.s:762    .text.HAL_I2S_Receive_DMA:00000000 HAL_I2S_Receive_DMA
C:\Users\SHINRA~1\AppData\Local\Temp\ccBXzGic.s:985    .text.HAL_I2S_Receive_DMA:000000cc $d
C:\Users\SHINRA~1\AppData\Local\Temp\ccBXzGic.s:1510   .text.I2S_DMARxHalfCplt:00000000 I2S_DMARxHalfCplt
C:\Users\SHINRA~1\AppData\Local\Temp\ccBXzGic.s:1565   .text.I2S_DMARxCplt:00000000 I2S_DMARxCplt
C:\Users\SHINRA~1\AppData\Local\Temp\ccBXzGic.s:992    .text.HAL_I2S_DMAPause:00000000 $t
C:\Users\SHINRA~1\AppData\Local\Temp\ccBXzGic.s:999    .text.HAL_I2S_DMAPause:00000000 HAL_I2S_DMAPause
C:\Users\SHINRA~1\AppData\Local\Temp\ccBXzGic.s:1072   .text.HAL_I2S_DMAResume:00000000 $t
C:\Users\SHINRA~1\AppData\Local\Temp\ccBXzGic.s:1079   .text.HAL_I2S_DMAResume:00000000 HAL_I2S_DMAResume
C:\Users\SHINRA~1\AppData\Local\Temp\ccBXzGic.s:1165   .text.HAL_I2S_DMAStop:00000000 $t
C:\Users\SHINRA~1\AppData\Local\Temp\ccBXzGic.s:1172   .text.HAL_I2S_DMAStop:00000000 HAL_I2S_DMAStop
C:\Users\SHINRA~1\AppData\Local\Temp\ccBXzGic.s:1276   .text.HAL_I2S_TxHalfCpltCallback:00000000 $t
C:\Users\SHINRA~1\AppData\Local\Temp\ccBXzGic.s:1283   .text.HAL_I2S_TxHalfCpltCallback:00000000 HAL_I2S_TxHalfCpltCallback
C:\Users\SHINRA~1\AppData\Local\Temp\ccBXzGic.s:1298   .text.I2S_DMATxHalfCplt:00000000 $t
C:\Users\SHINRA~1\AppData\Local\Temp\ccBXzGic.s:1331   .text.HAL_I2S_TxCpltCallback:00000000 $t
C:\Users\SHINRA~1\AppData\Local\Temp\ccBXzGic.s:1338   .text.HAL_I2S_TxCpltCallback:00000000 HAL_I2S_TxCpltCallback
C:\Users\SHINRA~1\AppData\Local\Temp\ccBXzGic.s:1353   .text.I2S_DMATxCplt:00000000 $t
C:\Users\SHINRA~1\AppData\Local\Temp\ccBXzGic.s:1411   .text.I2S_Transmit_IT:00000000 $t
C:\Users\SHINRA~1\AppData\Local\Temp\ccBXzGic.s:1417   .text.I2S_Transmit_IT:00000000 I2S_Transmit_IT
C:\Users\SHINRA~1\AppData\Local\Temp\ccBXzGic.s:1482   .text.HAL_I2S_RxHalfCpltCallback:00000000 $t
C:\Users\SHINRA~1\AppData\Local\Temp\ccBXzGic.s:1489   .text.HAL_I2S_RxHalfCpltCallback:00000000 HAL_I2S_RxHalfCpltCallback
C:\Users\SHINRA~1\AppData\Local\Temp\ccBXzGic.s:1504   .text.I2S_DMARxHalfCplt:00000000 $t
C:\Users\SHINRA~1\AppData\Local\Temp\ccBXzGic.s:1537   .text.HAL_I2S_RxCpltCallback:00000000 $t
C:\Users\SHINRA~1\AppData\Local\Temp\ccBXzGic.s:1544   .text.HAL_I2S_RxCpltCallback:00000000 HAL_I2S_RxCpltCallback
C:\Users\SHINRA~1\AppData\Local\Temp\ccBXzGic.s:1559   .text.I2S_DMARxCplt:00000000 $t
C:\Users\SHINRA~1\AppData\Local\Temp\ccBXzGic.s:1617   .text.I2S_Receive_IT:00000000 $t
C:\Users\SHINRA~1\AppData\Local\Temp\ccBXzGic.s:1623   .text.I2S_Receive_IT:00000000 I2S_Receive_IT
C:\Users\SHINRA~1\AppData\Local\Temp\ccBXzGic.s:1688   .text.HAL_I2S_ErrorCallback:00000000 $t
C:\Users\SHINRA~1\AppData\Local\Temp\ccBXzGic.s:1695   .text.HAL_I2S_ErrorCallback:00000000 HAL_I2S_ErrorCallback
C:\Users\SHINRA~1\AppData\Local\Temp\ccBXzGic.s:1710   .text.HAL_I2S_Transmit:00000000 $t
C:\Users\SHINRA~1\AppData\Local\Temp\ccBXzGic.s:1717   .text.HAL_I2S_Transmit:00000000 HAL_I2S_Transmit
C:\Users\SHINRA~1\AppData\Local\Temp\ccBXzGic.s:1935   .text.HAL_I2S_Receive:00000000 $t
C:\Users\SHINRA~1\AppData\Local\Temp\ccBXzGic.s:1942   .text.HAL_I2S_Receive:00000000 HAL_I2S_Receive
C:\Users\SHINRA~1\AppData\Local\Temp\ccBXzGic.s:2202   .text.I2S_DMAError:00000000 $t
C:\Users\SHINRA~1\AppData\Local\Temp\ccBXzGic.s:2257   .text.HAL_I2S_IRQHandler:00000000 $t
ARM GAS  C:\Users\SHINRA~1\AppData\Local\Temp\ccBXzGic.s 			page 81


C:\Users\SHINRA~1\AppData\Local\Temp\ccBXzGic.s:2264   .text.HAL_I2S_IRQHandler:00000000 HAL_I2S_IRQHandler
C:\Users\SHINRA~1\AppData\Local\Temp\ccBXzGic.s:2426   .text.HAL_I2S_GetState:00000000 $t
C:\Users\SHINRA~1\AppData\Local\Temp\ccBXzGic.s:2433   .text.HAL_I2S_GetState:00000000 HAL_I2S_GetState
C:\Users\SHINRA~1\AppData\Local\Temp\ccBXzGic.s:2451   .text.HAL_I2S_GetError:00000000 $t
C:\Users\SHINRA~1\AppData\Local\Temp\ccBXzGic.s:2458   .text.HAL_I2S_GetError:00000000 HAL_I2S_GetError

UNDEFINED SYMBOLS
HAL_GetTick
HAL_DMA_Start_IT
HAL_DMA_Abort
